; generated by Component: ARM Compiler 5.06 update 2 (build 183) Tool: ArmCC [4d35cd]
; commandline ArmCC [--list --split_sections --debug -c --asm --interleave -o..\obj\lcd.o --asm_dir=..\OBJ\ --list_dir=..\OBJ\ --depend=..\obj\lcd.d --cpu=Cortex-M3 --apcs=interwork --diag_suppress=9931 -I..\USER -I..\CORE -I..\STM32F10x_FWLib\inc -I..\SYSTEM\delay -I..\SYSTEM\sys -I..\SYSTEM\usart -I..\MALLOC -I..\FreeRTOS\include -I..\FreeRTOS\portable\RVDS\ARM_CM3 -I..\HARDWARE\LED -I..\HARDWARE\TIMER -I..\HARDWARE\LCD -I..\HARDWARE\EXTI -I..\HARDWARE\KEY -I..\HARDWARE\BEEP -I"E:\STM32F103战舰V3资料\STM32F103 FreeRTOS例程\FreeRTOS实验17-1 FreeRTOS内存管理实验\USER\RTE" -ID:\Keil_v5\ARM\PACK\Keil\STM32F1xx_DFP\2.1.0\Device\Include -ID:\Keil_v5\ARM\CMSIS\Include -D__UVISION_VERSION=520 -DSTM32F10X_HD -DSTM32F10X_HD -DUSE_STDPERIPH_DRIVER --omf_browse=..\obj\lcd.crf ..\HARDWARE\LCD\lcd.c]
                          THUMB

                          AREA ||i.LCD_BGR2RGB||, CODE, READONLY, ALIGN=1

                  LCD_BGR2RGB PROC
;;;137    //返回值：RGB格式的颜色值
;;;138    u16 LCD_BGR2RGB(u16 c)
000000  f3c01145          UBFX     r1,r0,#5,#6
;;;139    {
;;;140    	u16  r,g,b,rgb;   
;;;141    	b=(c>>0)&0x1f;
;;;142    	g=(c>>5)&0x3f;
;;;143    	r=(c>>11)&0x1f;	 
000004  0ac2              LSRS     r2,r0,#11
;;;144    	rgb=(b<<11)+(g<<5)+(r<<0);		 
000006  02c0              LSLS     r0,r0,#11
000008  eb001041          ADD      r0,r0,r1,LSL #5
00000c  4410              ADD      r0,r0,r2
00000e  b280              UXTH     r0,r0
;;;145    	return(rgb);
;;;146    } 
000010  4770              BX       lr
;;;147    //当mdk -O1时间优化时需要设置
                          ENDP


                          AREA ||i.LCD_Clear||, CODE, READONLY, ALIGN=2

                  LCD_Clear PROC
;;;2639   //color:要清屏的填充色
;;;2640   void LCD_Clear(u16 color)
000000  e92d43f0          PUSH     {r4-r9,lr}
;;;2641   {
;;;2642   	u32 index=0;      
;;;2643   	u32 totalpoint=lcddev.width;
000004  4f17              LDR      r7,|L2.100|
000006  4606              MOV      r6,r0                 ;2641
000008  2400              MOVS     r4,#0                 ;2642
00000a  8838              LDRH     r0,[r7,#0]  ; lcddev
;;;2644   	totalpoint*=lcddev.height; 			//得到总点数
00000c  887d              LDRH     r5,[r7,#2]  ; lcddev
00000e  4345              MULS     r5,r0,r5
;;;2645   	if((lcddev.id==0X6804)&&(lcddev.dir==1))//6804横屏的时候特殊处理  
000010  88b8              LDRH     r0,[r7,#4]  ; lcddev
000012  f5a041d0          SUB      r1,r0,#0x6800
000016  3904              SUBS     r1,#4
000018  d102              BNE      |L2.32|
00001a  79b8              LDRB     r0,[r7,#6]  ; lcddev
00001c  2801              CMP      r0,#1
00001e  d007              BEQ      |L2.48|
                  |L2.32|
;;;2646   	{						    
;;;2647    		lcddev.dir=0;	 
;;;2648    		lcddev.setxcmd=0X2A;
;;;2649   		lcddev.setycmd=0X2B;  	 			
;;;2650   		LCD_SetCursor(0x00,0x0000);		//设置光标位置  
;;;2651    		lcddev.dir=1;	 
;;;2652     		lcddev.setxcmd=0X2B;
;;;2653   		lcddev.setycmd=0X2A;  	 
;;;2654    	}else LCD_SetCursor(0x00,0x0000);	//设置光标位置 
000020  2100              MOVS     r1,#0
000022  4608              MOV      r0,r1
000024  f7fffffe          BL       LCD_SetCursor
                  |L2.40|
;;;2655   	LCD_WriteRAM_Prepare();     		//开始写入GRAM	 	  
000028  f7fffffe          BL       LCD_WriteRAM_Prepare
;;;2656   	for(index=0;index<totalpoint;index++)
;;;2657   	{
;;;2658   		LCD->LCD_RAM=color;	
00002c  480e              LDR      r0,|L2.104|
00002e  e015              B        |L2.92|
                  |L2.48|
000030  2000              MOVS     r0,#0                 ;2647
000032  71b8              STRB     r0,[r7,#6]            ;2647
000034  f04f092a          MOV      r9,#0x2a              ;2648
000038  f8a7900a          STRH     r9,[r7,#0xa]          ;2648
00003c  f04f082b          MOV      r8,#0x2b              ;2649
000040  f8a7800c          STRH     r8,[r7,#0xc]          ;2649
000044  4601              MOV      r1,r0                 ;2650
000046  f7fffffe          BL       LCD_SetCursor
00004a  2001              MOVS     r0,#1                 ;2651
00004c  71b8              STRB     r0,[r7,#6]            ;2651
00004e  f8a7800a          STRH     r8,[r7,#0xa]          ;2652
000052  f8a7900c          STRH     r9,[r7,#0xc]          ;2653
000056  e7e7              B        |L2.40|
                  |L2.88|
000058  8006              STRH     r6,[r0,#0]
00005a  1c64              ADDS     r4,r4,#1
                  |L2.92|
00005c  42ac              CMP      r4,r5                 ;2656
00005e  d3fb              BCC      |L2.88|
;;;2659   	}
;;;2660   }  
000060  e8bd83f0          POP      {r4-r9,pc}
;;;2661   //在指定区域内填充单个颜色
                          ENDP

                  |L2.100|
                          DCD      ||.bss||
                  |L2.104|
                          DCD      0x6c000800

                          AREA ||i.LCD_Color_Fill||, CODE, READONLY, ALIGN=2

                  LCD_Color_Fill PROC
;;;2696   //color:要填充的颜色
;;;2697   void LCD_Color_Fill(u16 sx,u16 sy,u16 ex,u16 ey,u16 *color)
000000  e92d47f0          PUSH     {r4-r10,lr}
;;;2698   {  
000004  4682              MOV      r10,r0
;;;2699   	u16 height,width;
;;;2700   	u16 i,j;
;;;2701   	width=ex-sx+1; 			//得到填充的宽度
000006  eba2000a          SUB      r0,r2,r10
00000a  1c40              ADDS     r0,r0,#1
00000c  460e              MOV      r6,r1                 ;2698
00000e  b285              UXTH     r5,r0
;;;2702   	height=ey-sy+1;			//高度
000010  1b98              SUBS     r0,r3,r6
000012  1c40              ADDS     r0,r0,#1
000014  b287              UXTH     r7,r0
;;;2703    	for(i=0;i<height;i++)
000016  2400              MOVS     r4,#0
;;;2704   	{
;;;2705    		LCD_SetCursor(sx,sy+i);   	//设置光标位置 
;;;2706   		LCD_WriteRAM_Prepare();     //开始写入GRAM
;;;2707   		for(j=0;j<width;j++)LCD->LCD_RAM=color[i*width+j];//写入数据 
000018  f8df9038          LDR      r9,|L3.84|
00001c  f8dd8020          LDR      r8,[sp,#0x20]         ;2698
000020  e014              B        |L3.76|
                  |L3.34|
000022  1930              ADDS     r0,r6,r4              ;2705
000024  b281              UXTH     r1,r0                 ;2705
000026  4650              MOV      r0,r10                ;2705
000028  f7fffffe          BL       LCD_SetCursor
00002c  f7fffffe          BL       LCD_WriteRAM_Prepare
000030  2000              MOVS     r0,#0
000032  4649              MOV      r1,r9
000034  e006              B        |L3.68|
                  |L3.54|
000036  fb040305          MLA      r3,r4,r5,r0
00003a  f8382013          LDRH     r2,[r8,r3,LSL #1]
00003e  800a              STRH     r2,[r1,#0]
000040  1c40              ADDS     r0,r0,#1
000042  b280              UXTH     r0,r0
                  |L3.68|
000044  42a8              CMP      r0,r5
000046  d3f6              BCC      |L3.54|
000048  1c64              ADDS     r4,r4,#1
00004a  b2a4              UXTH     r4,r4                 ;2703
                  |L3.76|
00004c  42bc              CMP      r4,r7                 ;2703
00004e  d3e8              BCC      |L3.34|
;;;2708   	}		  
;;;2709   }  
000050  e8bd87f0          POP      {r4-r10,pc}
;;;2710   //画线
                          ENDP

                  |L3.84|
                          DCD      0x6c000800

                          AREA ||i.LCD_DisplayOff||, CODE, READONLY, ALIGN=2

                  LCD_DisplayOff PROC
;;;187    //LCD关闭显示
;;;188    void LCD_DisplayOff(void)
000000  4810              LDR      r0,|L4.68|
000002  4911              LDR      r1,|L4.72|
;;;189    {	   
;;;190    	if(lcddev.id==0X9341||lcddev.id==0X6804||lcddev.id==0X5310||lcddev.id==0X1963)LCD_WR_REG(0X28);	//关闭显示
000004  8880              LDRH     r0,[r0,#4]  ; lcddev
000006  f5a04213          SUB      r2,r0,#0x9300
00000a  3a41              SUBS     r2,r2,#0x41
00000c  d013              BEQ      |L4.54|
00000e  f5a042d0          SUB      r2,r0,#0x6800
000012  3a04              SUBS     r2,#4
000014  d00f              BEQ      |L4.54|
000016  f5a042a6          SUB      r2,r0,#0x5300
00001a  3a10              SUBS     r2,r2,#0x10
00001c  d00b              BEQ      |L4.54|
00001e  f5a052c8          SUB      r2,r0,#0x1900
000022  3a63              SUBS     r2,r2,#0x63
000024  d007              BEQ      |L4.54|
;;;191    	else if(lcddev.id==0X5510)LCD_WR_REG(0X2800);	//关闭显示
000026  f5a042aa          SUB      r2,r0,#0x5500
00002a  3a10              SUBS     r2,r2,#0x10
00002c  d005              BEQ      |L4.58|
;;;192    	else LCD_WriteReg(0X07,0x0);//关闭显示 
00002e  2100              MOVS     r1,#0
000030  2007              MOVS     r0,#7
000032  f7ffbffe          B.W      LCD_WriteReg
                  |L4.54|
000036  2028              MOVS     r0,#0x28              ;190
000038  e001              B        |L4.62|
                  |L4.58|
00003a  f44f5020          MOV      r0,#0x2800            ;191
                  |L4.62|
00003e  8008              STRH     r0,[r1,#0]            ;191
;;;193    }   
000040  4770              BX       lr
;;;194    //设置光标位置
                          ENDP

000042  0000              DCW      0x0000
                  |L4.68|
                          DCD      ||.bss||
                  |L4.72|
                          DCD      0x6c0007fe

                          AREA ||i.LCD_DisplayOn||, CODE, READONLY, ALIGN=2

                  LCD_DisplayOn PROC
;;;180    //LCD开启显示
;;;181    void LCD_DisplayOn(void)
000000  4810              LDR      r0,|L5.68|
000002  4911              LDR      r1,|L5.72|
;;;182    {					   
;;;183    	if(lcddev.id==0X9341||lcddev.id==0X6804||lcddev.id==0X5310||lcddev.id==0X1963)LCD_WR_REG(0X29);	//开启显示
000004  8880              LDRH     r0,[r0,#4]  ; lcddev
000006  f5a04213          SUB      r2,r0,#0x9300
00000a  3a41              SUBS     r2,r2,#0x41
00000c  d014              BEQ      |L5.56|
00000e  f5a042d0          SUB      r2,r0,#0x6800
000012  3a04              SUBS     r2,#4
000014  d010              BEQ      |L5.56|
000016  f5a042a6          SUB      r2,r0,#0x5300
00001a  3a10              SUBS     r2,r2,#0x10
00001c  d00c              BEQ      |L5.56|
00001e  f5a052c8          SUB      r2,r0,#0x1900
000022  3a63              SUBS     r2,r2,#0x63
000024  d008              BEQ      |L5.56|
;;;184    	else if(lcddev.id==0X5510)LCD_WR_REG(0X2900);	//开启显示
000026  f5a042aa          SUB      r2,r0,#0x5500
00002a  3a10              SUBS     r2,r2,#0x10
00002c  d006              BEQ      |L5.60|
;;;185    	else LCD_WriteReg(0X07,0x0173); 				 	//开启显示
00002e  f2401173          MOV      r1,#0x173
000032  2007              MOVS     r0,#7
000034  f7ffbffe          B.W      LCD_WriteReg
                  |L5.56|
000038  2029              MOVS     r0,#0x29              ;183
00003a  e001              B        |L5.64|
                  |L5.60|
00003c  f44f5024          MOV      r0,#0x2900            ;184
                  |L5.64|
000040  8008              STRH     r0,[r1,#0]            ;184
;;;186    }	 
000042  4770              BX       lr
;;;187    //LCD关闭显示
                          ENDP

                  |L5.68|
                          DCD      ||.bss||
                  |L5.72|
                          DCD      0x6c0007fe

                          AREA ||i.LCD_Display_Dir||, CODE, READONLY, ALIGN=2

                  LCD_Display_Dir PROC
;;;439    //dir:0,竖屏；1,横屏
;;;440    void LCD_Display_Dir(u8 dir)
000000  e92d4ff0          PUSH     {r4-r11,lr}
;;;441    {
;;;442    	if(dir==0)			//竖屏
;;;443    	{
;;;444    		lcddev.dir=0;	//竖屏
000004  494a              LDR      r1,|L6.304|
;;;445    		lcddev.width=240;
;;;446    		lcddev.height=320;
;;;447    		if(lcddev.id==0X9341||lcddev.id==0X6804||lcddev.id==0X5310)
;;;448    		{
;;;449    			lcddev.wramcmd=0X2C;
;;;450    	 		lcddev.setxcmd=0X2A;
000006  232a              MOVS     r3,#0x2a
;;;451    			lcddev.setycmd=0X2B;  	 
000008  242b              MOVS     r4,#0x2b
00000a  8889              LDRH     r1,[r1,#4]            ;447
;;;452    			if(lcddev.id==0X6804||lcddev.id==0X5310)
;;;453    			{
;;;454    				lcddev.width=320;
;;;455    				lcddev.height=480;
;;;456    			}
;;;457    		}else if(lcddev.id==0x5510)
00000c  f2455a10          MOV      r10,#0x5510
;;;458    		{
;;;459    			lcddev.wramcmd=0X2C00;
000010  f44f5b30          MOV      r11,#0x2c00
;;;460    	 		lcddev.setxcmd=0X2A00;
000014  f44f5e28          MOV      lr,#0x2a00
;;;461    			lcddev.setycmd=0X2B00; 
;;;462    			lcddev.width=480;
;;;463    			lcddev.height=800;
000018  f44f7548          MOV      r5,#0x320
00001c  f04f0cf0          MOV      r12,#0xf0             ;445
000020  f2493941          MOV      r9,#0x9341            ;447
000024  f44f77a0          MOV      r7,#0x140             ;446
000028  f2453610          MOV      r6,#0x5310            ;447
00002c  f44f72f0          MOV      r2,#0x1e0             ;455
000030  b180              CBZ      r0,|L6.84|
;;;464    		}else if(lcddev.id==0X1963)
;;;465    		{
;;;466    			lcddev.wramcmd=0X2C;	//设置写入GRAM的指令 
;;;467    			lcddev.setxcmd=0X2B;	//设置写X坐标指令
;;;468    			lcddev.setycmd=0X2A;	//设置写Y坐标指令
;;;469    			lcddev.width=480;		//设置宽度480
;;;470    			lcddev.height=800;		//设置高度800  
;;;471    		}else
;;;472    		{
;;;473    			lcddev.wramcmd=0X22;
;;;474    	 		lcddev.setxcmd=0X20;
;;;475    			lcddev.setycmd=0X21;  
;;;476    		}
;;;477    	}else 				//横屏
;;;478    	{	  				
;;;479    		lcddev.dir=1;	//横屏
000032  483f              LDR      r0,|L6.304|
000034  f04f0801          MOV      r8,#1
;;;480    		lcddev.width=320;
;;;481    		lcddev.height=240;
;;;482    		if(lcddev.id==0X9341||lcddev.id==0X5310)
000038  4549              CMP      r1,r9
00003a  f8808006          STRB     r8,[r0,#6]            ;479
00003e  8007              STRH     r7,[r0,#0]            ;480
000040  f8a0c002          STRH     r12,[r0,#2]           ;481
000044  d001              BEQ      |L6.74|
000046  42b1              CMP      r1,r6
000048  d13e              BNE      |L6.200|
                  |L6.74|
;;;483    		{
;;;484    			lcddev.wramcmd=0X2C;
00004a  252c              MOVS     r5,#0x2c
00004c  8105              STRH     r5,[r0,#8]
;;;485    	 		lcddev.setxcmd=0X2A;
00004e  8143              STRH     r3,[r0,#0xa]
;;;486    			lcddev.setycmd=0X2B;  	 
000050  8184              STRH     r4,[r0,#0xc]
000052  e057              B        |L6.260|
                  |L6.84|
000054  4836              LDR      r0,|L6.304|
000056  f04f0800          MOV      r8,#0                 ;444
00005a  4549              CMP      r1,r9                 ;447
00005c  f8808006          STRB     r8,[r0,#6]            ;444
000060  f8a0c000          STRH     r12,[r0,#0]           ;445
000064  8047              STRH     r7,[r0,#2]            ;446
000066  d006              BEQ      |L6.118|
000068  f5a14cd0          SUB      r12,r1,#0x6800        ;447
00006c  f1bc0c04          SUBS     r12,r12,#4            ;447
000070  d001              BEQ      |L6.118|
000072  42b1              CMP      r1,r6                 ;447
000074  d10c              BNE      |L6.144|
                  |L6.118|
000076  252c              MOVS     r5,#0x2c              ;449
000078  8105              STRH     r5,[r0,#8]            ;449
00007a  8143              STRH     r3,[r0,#0xa]          ;450
00007c  f5a143d0          SUB      r3,r1,#0x6800         ;452
000080  8184              STRH     r4,[r0,#0xc]          ;451
000082  3b04              SUBS     r3,#4                 ;452
000084  d001              BEQ      |L6.138|
000086  42b1              CMP      r1,r6                 ;452
000088  d144              BNE      |L6.276|
                  |L6.138|
00008a  8007              STRH     r7,[r0,#0]            ;454
00008c  8042              STRH     r2,[r0,#2]            ;455
00008e  e041              B        |L6.276|
                  |L6.144|
000090  4551              CMP      r1,r10                ;457
000092  d107              BNE      |L6.164|
000094  f8a0b008          STRH     r11,[r0,#8]           ;459
000098  f8a0e00a          STRH     lr,[r0,#0xa]          ;460
00009c  f44f512c          MOV      r1,#0x2b00            ;461
0000a0  8181              STRH     r1,[r0,#0xc]          ;461
0000a2  e00e              B        |L6.194|
                  |L6.164|
0000a4  f5a156c8          SUB      r6,r1,#0x1900         ;464
0000a8  3e63              SUBS     r6,r6,#0x63           ;464
0000aa  d006              BEQ      |L6.186|
0000ac  2122              MOVS     r1,#0x22              ;473
0000ae  8101              STRH     r1,[r0,#8]            ;473
0000b0  2120              MOVS     r1,#0x20              ;474
0000b2  8141              STRH     r1,[r0,#0xa]          ;474
0000b4  2121              MOVS     r1,#0x21              ;475
0000b6  8181              STRH     r1,[r0,#0xc]          ;475
0000b8  e02c              B        |L6.276|
                  |L6.186|
0000ba  212c              MOVS     r1,#0x2c              ;466
0000bc  8101              STRH     r1,[r0,#8]            ;466
0000be  8144              STRH     r4,[r0,#0xa]          ;467
0000c0  8183              STRH     r3,[r0,#0xc]          ;468
                  |L6.194|
0000c2  8002              STRH     r2,[r0,#0]            ;469
0000c4  8045              STRH     r5,[r0,#2]            ;470
0000c6  e025              B        |L6.276|
                  |L6.200|
;;;487    		}else if(lcddev.id==0X6804)	 
0000c8  f5a14cd0          SUB      r12,r1,#0x6800
0000cc  f1bc0c04          SUBS     r12,r12,#4
0000d0  d009              BEQ      |L6.230|
;;;488    		{
;;;489     			lcddev.wramcmd=0X2C;
;;;490    	 		lcddev.setxcmd=0X2B;
;;;491    			lcddev.setycmd=0X2A; 
;;;492    		}else if(lcddev.id==0x5510)
0000d2  4551              CMP      r1,r10
0000d4  d10b              BNE      |L6.238|
;;;493    		{
;;;494    			lcddev.wramcmd=0X2C00;
0000d6  f8a0b008          STRH     r11,[r0,#8]
;;;495    	 		lcddev.setxcmd=0X2A00;
0000da  f8a0e00a          STRH     lr,[r0,#0xa]
;;;496    			lcddev.setycmd=0X2B00; 
0000de  f44f532c          MOV      r3,#0x2b00
0000e2  8183              STRH     r3,[r0,#0xc]
;;;497    			lcddev.width=800;
;;;498    			lcddev.height=480;
0000e4  e021              B        |L6.298|
                  |L6.230|
0000e6  252c              MOVS     r5,#0x2c              ;489
0000e8  8105              STRH     r5,[r0,#8]            ;489
0000ea  8144              STRH     r4,[r0,#0xa]          ;490
0000ec  e009              B        |L6.258|
                  |L6.238|
;;;499    		}else if(lcddev.id==0X1963)
0000ee  f5a15cc8          SUB      r12,r1,#0x1900
0000f2  f1bc0c63          SUBS     r12,r12,#0x63
0000f6  d012              BEQ      |L6.286|
;;;500    		{
;;;501    			lcddev.wramcmd=0X2C;	//设置写入GRAM的指令 
;;;502    			lcddev.setxcmd=0X2A;	//设置写X坐标指令
;;;503    			lcddev.setycmd=0X2B;	//设置写Y坐标指令
;;;504    			lcddev.width=800;		//设置宽度800
;;;505    			lcddev.height=480;		//设置高度480  
;;;506    		}else
;;;507    		{
;;;508    			lcddev.wramcmd=0X22;
0000f8  2322              MOVS     r3,#0x22
0000fa  8103              STRH     r3,[r0,#8]
;;;509    	 		lcddev.setxcmd=0X21;
0000fc  2321              MOVS     r3,#0x21
0000fe  8143              STRH     r3,[r0,#0xa]
;;;510    			lcddev.setycmd=0X20;  
000100  2320              MOVS     r3,#0x20
                  |L6.258|
000102  8183              STRH     r3,[r0,#0xc]
                  |L6.260|
;;;511    		}
;;;512    		if(lcddev.id==0X6804||lcddev.id==0X5310)
000104  f5a143d0          SUB      r3,r1,#0x6800
000108  3b04              SUBS     r3,#4
00010a  d001              BEQ      |L6.272|
00010c  42b1              CMP      r1,r6
00010e  d101              BNE      |L6.276|
                  |L6.272|
;;;513    		{ 	 
;;;514    			lcddev.width=480;
000110  8002              STRH     r2,[r0,#0]
;;;515    			lcddev.height=320; 			
000112  8047              STRH     r7,[r0,#2]
                  |L6.276|
;;;516    		}
;;;517    	} 
;;;518    	LCD_Scan_Dir(DFT_SCAN_DIR);	//默认扫描方向
000114  e8bd4ff0          POP      {r4-r11,lr}
000118  2000              MOVS     r0,#0
00011a  f7ffbffe          B.W      LCD_Scan_Dir
                  |L6.286|
00011e  f04f0c2c          MOV      r12,#0x2c             ;501
000122  f8a0c008          STRH     r12,[r0,#8]           ;501
000126  8143              STRH     r3,[r0,#0xa]          ;502
000128  8184              STRH     r4,[r0,#0xc]          ;503
                  |L6.298|
00012a  8005              STRH     r5,[r0,#0]            ;504
00012c  8042              STRH     r2,[r0,#2]            ;505
00012e  e7e9              B        |L6.260|
;;;519    }	 
;;;520    //设置窗口,并自动设置画点坐标到窗口左上角(sx,sy).
                          ENDP

                  |L6.304|
                          DCD      ||.bss||

                          AREA ||i.LCD_DrawLine||, CODE, READONLY, ALIGN=1

                  LCD_DrawLine PROC
;;;2712   //x2,y2:终点坐标  
;;;2713   void LCD_DrawLine(u16 x1, u16 y1, u16 x2, u16 y2)
000000  e92d4ffe          PUSH     {r1-r11,lr}
;;;2714   {
;;;2715   	u16 t; 
;;;2716   	int xerr=0,yerr=0,delta_x,delta_y,distance; 
000004  2600              MOVS     r6,#0
;;;2717   	int incx,incy,uRow,uCol; 
;;;2718   	delta_x=x2-x1; //计算坐标增量 
000006  eba20800          SUB      r8,r2,r0
;;;2719   	delta_y=y2-y1; 
;;;2720   	uRow=x1; 
00000a  4682              MOV      r10,r0
00000c  1a5f              SUBS     r7,r3,r1              ;2719
;;;2721   	uCol=y1; 
;;;2722   	if(delta_x>0)incx=1; //设置单步方向 
;;;2723   	else if(delta_x==0)incx=0;//垂直线 
;;;2724   	else {incx=-1;delta_x=-delta_x;} 
00000e  1e70              SUBS     r0,r6,#1
000010  4635              MOV      r5,r6                 ;2716
000012  4689              MOV      r9,r1                 ;2721
000014  f1b80f00          CMP      r8,#0                 ;2722
000018  dd02              BLE      |L7.32|
00001a  f04f0101          MOV      r1,#1                 ;2722
00001e  e002              B        |L7.38|
                  |L7.32|
000020  d103              BNE      |L7.42|
000022  f04f0100          MOV      r1,#0                 ;2723
                  |L7.38|
000026  9101              STR      r1,[sp,#4]            ;2723
000028  e002              B        |L7.48|
                  |L7.42|
00002a  f1c80800          RSB      r8,r8,#0
00002e  9001              STR      r0,[sp,#4]
                  |L7.48|
;;;2725   	if(delta_y>0)incy=1; 
000030  2f00              CMP      r7,#0
000032  dd02              BLE      |L7.58|
000034  f04f0001          MOV      r0,#1
000038  e002              B        |L7.64|
                  |L7.58|
;;;2726   	else if(delta_y==0)incy=0;//水平线 
00003a  d103              BNE      |L7.68|
00003c  f04f0000          MOV      r0,#0
                  |L7.64|
000040  9000              STR      r0,[sp,#0]
000042  e002              B        |L7.74|
                  |L7.68|
;;;2727   	else{incy=-1;delta_y=-delta_y;} 
000044  f1c70700          RSB      r7,r7,#0
000048  9000              STR      r0,[sp,#0]
                  |L7.74|
;;;2728   	if( delta_x>delta_y)distance=delta_x; //选取基本增量坐标轴 
00004a  4640              MOV      r0,r8
00004c  45b8              CMP      r8,r7
00004e  dd01              BLE      |L7.84|
000050  4604              MOV      r4,r0
000052  e000              B        |L7.86|
                  |L7.84|
;;;2729   	else distance=delta_y; 
000054  463c              MOV      r4,r7
                  |L7.86|
;;;2730   	for(t=0;t<=distance+1;t++ )//画线输出 
000056  1c60              ADDS     r0,r4,#1
000058  f04f0b00          MOV      r11,#0
00005c  9002              STR      r0,[sp,#8]
00005e  e015              B        |L7.140|
                  |L7.96|
;;;2731   	{  
;;;2732   		LCD_DrawPoint(uRow,uCol);//画点 
000060  fa1ff189          UXTH     r1,r9
000064  fa1ff08a          UXTH     r0,r10
000068  f7fffffe          BL       LCD_DrawPoint
;;;2733   		xerr+=delta_x ; 
00006c  4446              ADD      r6,r6,r8
;;;2734   		yerr+=delta_y ; 
00006e  443d              ADD      r5,r5,r7
;;;2735   		if(xerr>distance) 
000070  42a6              CMP      r6,r4
000072  dd02              BLE      |L7.122|
;;;2736   		{ 
;;;2737   			xerr-=distance; 
;;;2738   			uRow+=incx; 
000074  9901              LDR      r1,[sp,#4]
000076  1b36              SUBS     r6,r6,r4              ;2737
000078  448a              ADD      r10,r10,r1
                  |L7.122|
;;;2739   		} 
;;;2740   		if(yerr>distance) 
00007a  42a5              CMP      r5,r4
00007c  dd02              BLE      |L7.132|
;;;2741   		{ 
;;;2742   			yerr-=distance; 
;;;2743   			uCol+=incy; 
00007e  9900              LDR      r1,[sp,#0]
000080  1b2d              SUBS     r5,r5,r4              ;2742
000082  4489              ADD      r9,r9,r1
                  |L7.132|
000084  f10b0001          ADD      r0,r11,#1             ;2730
000088  fa1ffb80          UXTH     r11,r0                ;2730
                  |L7.140|
00008c  9902              LDR      r1,[sp,#8]            ;2730
00008e  458b              CMP      r11,r1                ;2730
000090  dde6              BLE      |L7.96|
;;;2744   		} 
;;;2745   	}  
;;;2746   }    
000092  e8bd8ffe          POP      {r1-r11,pc}
;;;2747   //画矩形	  
                          ENDP


                          AREA ||i.LCD_DrawPoint||, CODE, READONLY, ALIGN=2

                  LCD_DrawPoint PROC
;;;376    //POINT_COLOR:此点的颜色
;;;377    void LCD_DrawPoint(u16 x,u16 y)
000000  b500              PUSH     {lr}
;;;378    {
;;;379    	LCD_SetCursor(x,y);		//设置光标位置 
000002  f7fffffe          BL       LCD_SetCursor
;;;380    	LCD_WriteRAM_Prepare();	//开始写入GRAM
000006  f7fffffe          BL       LCD_WriteRAM_Prepare
;;;381    	LCD->LCD_RAM=POINT_COLOR; 
00000a  4802              LDR      r0,|L8.20|
00000c  4902              LDR      r1,|L8.24|
00000e  8800              LDRH     r0,[r0,#0]  ; POINT_COLOR
000010  8008              STRH     r0,[r1,#0]
;;;382    }
000012  bd00              POP      {pc}
;;;383    //快速画点
                          ENDP

                  |L8.20|
                          DCD      ||.data||
                  |L8.24|
                          DCD      0x6c000800

                          AREA ||i.LCD_DrawRectangle||, CODE, READONLY, ALIGN=1

                  LCD_DrawRectangle PROC
;;;2748   //(x1,y1),(x2,y2):矩形的对角坐标
;;;2749   void LCD_DrawRectangle(u16 x1, u16 y1, u16 x2, u16 y2)
000000  b5f0              PUSH     {r4-r7,lr}
;;;2750   {
000002  461c              MOV      r4,r3
000004  4615              MOV      r5,r2
000006  460e              MOV      r6,r1
000008  4607              MOV      r7,r0
;;;2751   	LCD_DrawLine(x1,y1,x2,y1);
00000a  460b              MOV      r3,r1
00000c  f7fffffe          BL       LCD_DrawLine
;;;2752   	LCD_DrawLine(x1,y1,x1,y2);
000010  463a              MOV      r2,r7
000012  4623              MOV      r3,r4
000014  4631              MOV      r1,r6
000016  4610              MOV      r0,r2
000018  f7fffffe          BL       LCD_DrawLine
;;;2753   	LCD_DrawLine(x1,y2,x2,y2);
00001c  4623              MOV      r3,r4
00001e  462a              MOV      r2,r5
000020  4619              MOV      r1,r3
000022  4638              MOV      r0,r7
000024  f7fffffe          BL       LCD_DrawLine
;;;2754   	LCD_DrawLine(x2,y1,x2,y2);
000028  462a              MOV      r2,r5
00002a  4623              MOV      r3,r4
00002c  4631              MOV      r1,r6
00002e  e8bd40f0          POP      {r4-r7,lr}
000032  4610              MOV      r0,r2
000034  f7ffbffe          B.W      LCD_DrawLine
;;;2755   }
;;;2756   //在指定位置画一个指定大小的圆
                          ENDP


                          AREA ||i.LCD_Draw_Circle||, CODE, READONLY, ALIGN=1

                  LCD_Draw_Circle PROC
;;;2758   //r    :半径
;;;2759   void LCD_Draw_Circle(u16 x0,u16 y0,u8 r)
000000  e92d4ffc          PUSH     {r2-r11,lr}
;;;2760   {
000004  4680              MOV      r8,r0
;;;2761   	int a,b;
;;;2762   	int di;
;;;2763   	a=0;b=r;	  
000006  2400              MOVS     r4,#0
000008  4615              MOV      r5,r2
;;;2764   	di=3-(r<<1);             //判断下个点位置的标志
00000a  2003              MOVS     r0,#3
00000c  460f              MOV      r7,r1                 ;2760
00000e  eba00645          SUB      r6,r0,r5,LSL #1
000012  e049              B        |L10.168|
                  |L10.20|
;;;2765   	while(a<=b)
;;;2766   	{
;;;2767   		LCD_DrawPoint(x0+a,y0-b);             //5
000014  1b78              SUBS     r0,r7,r5
000016  b281              UXTH     r1,r0
000018  eb080a04          ADD      r10,r8,r4
00001c  9001              STR      r0,[sp,#4]
00001e  fa1ff08a          UXTH     r0,r10
000022  f7fffffe          BL       LCD_DrawPoint
;;;2768    		LCD_DrawPoint(x0+b,y0-a);             //0           
000026  1b38              SUBS     r0,r7,r4
000028  b281              UXTH     r1,r0
00002a  eb080905          ADD      r9,r8,r5
00002e  9000              STR      r0,[sp,#0]
000030  fa1ff089          UXTH     r0,r9
000034  f7fffffe          BL       LCD_DrawPoint
;;;2769   		LCD_DrawPoint(x0+b,y0+a);             //4               
000038  eb070b04          ADD      r11,r7,r4
00003c  fa1ff18b          UXTH     r1,r11
000040  fa1ff089          UXTH     r0,r9
000044  f7fffffe          BL       LCD_DrawPoint
;;;2770   		LCD_DrawPoint(x0+a,y0+b);             //6 
000048  eb070905          ADD      r9,r7,r5
00004c  fa1ff189          UXTH     r1,r9
000050  fa1ff08a          UXTH     r0,r10
000054  f7fffffe          BL       LCD_DrawPoint
;;;2771   		LCD_DrawPoint(x0-a,y0+b);             //1       
000058  eba80a04          SUB      r10,r8,r4
00005c  fa1ff189          UXTH     r1,r9
000060  fa1ff08a          UXTH     r0,r10
000064  f7fffffe          BL       LCD_DrawPoint
;;;2772    		LCD_DrawPoint(x0-b,y0+a);             
000068  eba80905          SUB      r9,r8,r5
00006c  fa1ff18b          UXTH     r1,r11
000070  fa1ff089          UXTH     r0,r9
000074  f7fffffe          BL       LCD_DrawPoint
;;;2773   		LCD_DrawPoint(x0-a,y0-b);             //2             
000078  9801              LDR      r0,[sp,#4]
00007a  b281              UXTH     r1,r0
00007c  fa1ff08a          UXTH     r0,r10
000080  f7fffffe          BL       LCD_DrawPoint
;;;2774     		LCD_DrawPoint(x0-b,y0-a);             //7     	         
000084  9800              LDR      r0,[sp,#0]
000086  b281              UXTH     r1,r0
000088  fa1ff089          UXTH     r0,r9
00008c  f7fffffe          BL       LCD_DrawPoint
000090  1c64              ADDS     r4,r4,#1
;;;2775   		a++;
;;;2776   		//使用Bresenham算法画圆     
;;;2777   		if(di<0)di +=4*a+6;	  
000092  2e00              CMP      r6,#0
000094  da03              BGE      |L10.158|
000096  eb060684          ADD      r6,r6,r4,LSL #2
00009a  1db6              ADDS     r6,r6,#6
00009c  e004              B        |L10.168|
                  |L10.158|
;;;2778   		else
;;;2779   		{
;;;2780   			di+=10+4*(a-b);   
00009e  1b60              SUBS     r0,r4,r5
0000a0  eb060680          ADD      r6,r6,r0,LSL #2
0000a4  1e6d              SUBS     r5,r5,#1
0000a6  360a              ADDS     r6,r6,#0xa
                  |L10.168|
0000a8  42ac              CMP      r4,r5                 ;2765
0000aa  ddb3              BLE      |L10.20|
;;;2781   			b--;
;;;2782   		} 						    
;;;2783   	}
;;;2784   } 									  
0000ac  e8bd8ffc          POP      {r2-r11,pc}
;;;2785   //在指定位置显示一个字符
                          ENDP


                          AREA ||i.LCD_Fast_DrawPoint||, CODE, READONLY, ALIGN=2

                  LCD_Fast_DrawPoint PROC
;;;385    //color:颜色
;;;386    void LCD_Fast_DrawPoint(u16 x,u16 y,u16 color)
000000  e92d4ff0          PUSH     {r4-r11,lr}
;;;387    {	   
;;;388    	if(lcddev.id==0X9341||lcddev.id==0X5310)
000004  f8df810c          LDR      r8,|L11.276|
000008  4693              MOV      r11,r2                ;387
00000a  4642              MOV      r2,r8
00000c  460b              MOV      r3,r1                 ;387
00000e  f8b85004          LDRH     r5,[r8,#4]  ; lcddev
;;;389    	{
;;;390    		LCD_WR_REG(lcddev.setxcmd); 
;;;391    		LCD_WR_DATA(x>>8);LCD_WR_DATA(x&0XFF);  			 
;;;392    		LCD_WR_REG(lcddev.setycmd); 
;;;393    		LCD_WR_DATA(y>>8);LCD_WR_DATA(y&0XFF); 		 	 
000012  0a0c              LSRS     r4,r1,#8
000014  f8dfa100          LDR      r10,|L11.280|
000018  8991              LDRH     r1,[r2,#0xc]          ;392
00001a  0a06              LSRS     r6,r0,#8              ;391
00001c  8952              LDRH     r2,[r2,#0xa]          ;390
00001e  f5a54713          SUB      r7,r5,#0x9300         ;388
000022  f10a0902          ADD      r9,r10,#2             ;388
000026  3f41              SUBS     r7,r7,#0x41           ;388
000028  d018              BEQ      |L11.92|
00002a  f5a547a6          SUB      r7,r5,#0x5300         ;388
00002e  3f10              SUBS     r7,r7,#0x10           ;388
000030  d014              BEQ      |L11.92|
;;;394    	}else if(lcddev.id==0X5510)
000032  f5b77700          SUBS     r7,r7,#0x200
000036  d01c              BEQ      |L11.114|
000038  4647              MOV      r7,r8                 ;388
;;;395    	{
;;;396    		LCD_WR_REG(lcddev.setxcmd);LCD_WR_DATA(x>>8);  
;;;397    		LCD_WR_REG(lcddev.setxcmd+1);LCD_WR_DATA(x&0XFF);	  
;;;398    		LCD_WR_REG(lcddev.setycmd);LCD_WR_DATA(y>>8);  
;;;399    		LCD_WR_REG(lcddev.setycmd+1);LCD_WR_DATA(y&0XFF); 
;;;400    	}else if(lcddev.id==0X1963)
00003a  f5a55cc8          SUB      r12,r5,#0x1900
;;;401    	{
;;;402    		if(lcddev.dir==0)x=lcddev.width-1-x;
00003e  79be              LDRB     r6,[r7,#6]
000040  883f              LDRH     r7,[r7,#0]
000042  1a3f              SUBS     r7,r7,r0
000044  1e7f              SUBS     r7,r7,#1
000046  f1bc0c63          SUBS     r12,r12,#0x63         ;400
00004a  d027              BEQ      |L11.156|
;;;403    		LCD_WR_REG(lcddev.setxcmd); 
;;;404    		LCD_WR_DATA(x>>8);LCD_WR_DATA(x&0XFF); 		
;;;405    		LCD_WR_DATA(x>>8);LCD_WR_DATA(x&0XFF); 		
;;;406    		LCD_WR_REG(lcddev.setycmd); 
;;;407    		LCD_WR_DATA(y>>8);LCD_WR_DATA(y&0XFF); 		
;;;408    		LCD_WR_DATA(y>>8);LCD_WR_DATA(y&0XFF); 		
;;;409    	}else if(lcddev.id==0X6804)
00004c  f5a54cd0          SUB      r12,r5,#0x6800
000050  f1bc0c04          SUBS     r12,r12,#4
000054  d03a              BEQ      |L11.204|
;;;410    	{		    
;;;411    		if(lcddev.dir==1)x=lcddev.width-1-x;//横屏时处理
;;;412    		LCD_WR_REG(lcddev.setxcmd); 
;;;413    		LCD_WR_DATA(x>>8);LCD_WR_DATA(x&0XFF);			 
;;;414    		LCD_WR_REG(lcddev.setycmd); 
;;;415    		LCD_WR_DATA(y>>8);LCD_WR_DATA(y&0XFF); 		
;;;416    	}else
;;;417    	{
;;;418     		if(lcddev.dir==1)x=lcddev.width-1-x;//横屏其实就是调转x,y坐标
000056  2e01              CMP      r6,#1
000058  d04a              BEQ      |L11.240|
00005a  e04a              B        |L11.242|
                  |L11.92|
00005c  f8aa2000          STRH     r2,[r10,#0]
000060  464a              MOV      r2,r9
000062  f8a96000          STRH     r6,[r9,#0]
000066  b2c0              UXTB     r0,r0                 ;391
000068  f8a90000          STRH     r0,[r9,#0]            ;391
00006c  f8aa1000          STRH     r1,[r10,#0]           ;391
000070  e03a              B        |L11.232|
                  |L11.114|
000072  f8aa2000          STRH     r2,[r10,#0]           ;393
000076  f8a96000          STRH     r6,[r9,#0]            ;393
00007a  1c52              ADDS     r2,r2,#1              ;393
00007c  f8aa2000          STRH     r2,[r10,#0]           ;393
000080  b2c0              UXTB     r0,r0                 ;397
000082  f8a90000          STRH     r0,[r9,#0]            ;397
000086  f8aa1000          STRH     r1,[r10,#0]           ;397
00008a  f8a94000          STRH     r4,[r9,#0]            ;397
00008e  1c49              ADDS     r1,r1,#1              ;397
000090  f8aa1000          STRH     r1,[r10,#0]           ;397
000094  b2d8              UXTB     r0,r3                 ;399
000096  f8a90000          STRH     r0,[r9,#0]            ;399
00009a  e033              B        |L11.260|
                  |L11.156|
00009c  b906              CBNZ     r6,|L11.160|
00009e  b2b8              UXTH     r0,r7                 ;402
                  |L11.160|
0000a0  f8aa2000          STRH     r2,[r10,#0]           ;402
0000a4  0a05              LSRS     r5,r0,#8              ;404
0000a6  464a              MOV      r2,r9                 ;404
0000a8  f8a95000          STRH     r5,[r9,#0]            ;404
0000ac  b2c7              UXTB     r7,r0                 ;404
0000ae  f8a97000          STRH     r7,[r9,#0]            ;404
0000b2  f8a95000          STRH     r5,[r9,#0]            ;404
0000b6  b2c0              UXTB     r0,r0                 ;405
0000b8  f8a90000          STRH     r0,[r9,#0]            ;405
0000bc  f8aa1000          STRH     r1,[r10,#0]           ;405
0000c0  f8a94000          STRH     r4,[r9,#0]            ;405
0000c4  b2d8              UXTB     r0,r3                 ;407
0000c6  f8a90000          STRH     r0,[r9,#0]            ;407
0000ca  e00d              B        |L11.232|
                  |L11.204|
0000cc  2e01              CMP      r6,#1                 ;411
0000ce  d100              BNE      |L11.210|
0000d0  b2b8              UXTH     r0,r7                 ;411
                  |L11.210|
0000d2  f8aa2000          STRH     r2,[r10,#0]           ;411
0000d6  0a05              LSRS     r5,r0,#8              ;413
0000d8  464a              MOV      r2,r9                 ;413
0000da  f8a95000          STRH     r5,[r9,#0]            ;413
0000de  b2c0              UXTB     r0,r0                 ;413
0000e0  f8a90000          STRH     r0,[r9,#0]            ;413
0000e4  f8aa1000          STRH     r1,[r10,#0]           ;413
                  |L11.232|
0000e8  8014              STRH     r4,[r2,#0]            ;413
0000ea  b2d8              UXTB     r0,r3                 ;415
0000ec  8010              STRH     r0,[r2,#0]            ;415
0000ee  e009              B        |L11.260|
                  |L11.240|
0000f0  b2b8              UXTH     r0,r7
                  |L11.242|
;;;419    		LCD_WriteReg(lcddev.setxcmd,x);
0000f2  4601              MOV      r1,r0
0000f4  4610              MOV      r0,r2
0000f6  f7fffffe          BL       LCD_WriteReg
;;;420    		LCD_WriteReg(lcddev.setycmd,y);
0000fa  f8b8000c          LDRH     r0,[r8,#0xc]  ; lcddev
0000fe  4619              MOV      r1,r3
000100  f7fffffe          BL       LCD_WriteReg
                  |L11.260|
;;;421    	}			 
;;;422    	LCD->LCD_REG=lcddev.wramcmd; 
000104  f8b81008          LDRH     r1,[r8,#8]  ; lcddev
000108  f8aa1000          STRH     r1,[r10,#0]
;;;423    	LCD->LCD_RAM=color; 
00010c  f8a9b000          STRH     r11,[r9,#0]
;;;424    }	 
000110  e8bd8ff0          POP      {r4-r11,pc}
;;;425    //SSD1963 背光设置
                          ENDP

                  |L11.276|
                          DCD      ||.bss||
                  |L11.280|
                          DCD      0x6c0007fe

                          AREA ||i.LCD_Fill||, CODE, READONLY, ALIGN=2

                  LCD_Fill PROC
;;;2663   //color:要填充的颜色
;;;2664   void LCD_Fill(u16 sx,u16 sy,u16 ex,u16 ey,u16 color)
000000  e92d43f8          PUSH     {r3-r9,lr}
;;;2665   {          
;;;2666   	u16 i,j;
;;;2667   	u16 xlen=0;
;;;2668   	u16 temp;
;;;2669   	if((lcddev.id==0X6804)&&(lcddev.dir==1))	//6804横屏的时候特殊处理  
000004  4d1f              LDR      r5,|L12.132|
000006  461f              MOV      r7,r3                 ;2665
000008  4680              MOV      r8,r0                 ;2665
00000a  88ab              LDRH     r3,[r5,#4]  ; lcddev
00000c  9e08              LDR      r6,[sp,#0x20]
00000e  f5a340d0          SUB      r0,r3,#0x6800
000012  3804              SUBS     r0,#4
000014  d102              BNE      |L12.28|
000016  79a8              LDRB     r0,[r5,#6]  ; lcddev
000018  2801              CMP      r0,#1
00001a  d007              BEQ      |L12.44|
                  |L12.28|
;;;2670   	{
;;;2671   		temp=sx;
;;;2672   		sx=sy;
;;;2673   		sy=lcddev.width-ex-1;	  
;;;2674   		ex=ey;
;;;2675   		ey=lcddev.width-temp-1;
;;;2676    		lcddev.dir=0;	 
;;;2677    		lcddev.setxcmd=0X2A;
;;;2678   		lcddev.setycmd=0X2B;  	 			
;;;2679   		LCD_Fill(sx,sy,ex,ey,color);  
;;;2680    		lcddev.dir=1;	 
;;;2681     		lcddev.setxcmd=0X2B;
;;;2682   		lcddev.setycmd=0X2A;  	 
;;;2683    	}else
;;;2684   	{
;;;2685   		xlen=ex-sx+1;	 
00001c  eba20008          SUB      r0,r2,r8
000020  1c40              ADDS     r0,r0,#1
000022  b285              UXTH     r5,r0
;;;2686   		for(i=sy;i<=ey;i++)
000024  460c              MOV      r4,r1
;;;2687   		{
;;;2688   		 	LCD_SetCursor(sx,i);      				//设置光标位置 
;;;2689   			LCD_WriteRAM_Prepare();     			//开始写入GRAM	  
;;;2690   			for(j=0;j<xlen;j++)LCD->LCD_RAM=color;	//显示颜色 	    
000026  f8df9060          LDR      r9,|L12.136|
00002a  e028              B        |L12.126|
                  |L12.44|
00002c  882b              LDRH     r3,[r5,#0]            ;2673  ; lcddev
00002e  4608              MOV      r0,r1                 ;2672
000030  1a99              SUBS     r1,r3,r2              ;2673
000032  2400              MOVS     r4,#0                 ;2676
000034  71ac              STRB     r4,[r5,#6]            ;2676
000036  463a              MOV      r2,r7                 ;2674
000038  242a              MOVS     r4,#0x2a              ;2677
00003a  eba30308          SUB      r3,r3,r8              ;2675
00003e  816c              STRH     r4,[r5,#0xa]          ;2677
000040  272b              MOVS     r7,#0x2b              ;2678
000042  1e49              SUBS     r1,r1,#1              ;2673
000044  1e5b              SUBS     r3,r3,#1              ;2675
000046  81af              STRH     r7,[r5,#0xc]          ;2678
000048  b289              UXTH     r1,r1                 ;2673
00004a  b29b              UXTH     r3,r3                 ;2675
00004c  9600              STR      r6,[sp,#0]            ;2679
00004e  f7fffffe          BL       LCD_Fill
000052  2001              MOVS     r0,#1                 ;2680
000054  71a8              STRB     r0,[r5,#6]            ;2680
000056  816f              STRH     r7,[r5,#0xa]          ;2681
000058  81ac              STRH     r4,[r5,#0xc]          ;2682
                  |L12.90|
;;;2691   		}
;;;2692   	}	 
;;;2693   }  
00005a  e8bd83f8          POP      {r3-r9,pc}
                  |L12.94|
00005e  4621              MOV      r1,r4                 ;2688
000060  4640              MOV      r0,r8                 ;2688
000062  f7fffffe          BL       LCD_SetCursor
000066  f7fffffe          BL       LCD_WriteRAM_Prepare
00006a  2000              MOVS     r0,#0                 ;2690
00006c  4649              MOV      r1,r9                 ;2690
00006e  e002              B        |L12.118|
                  |L12.112|
000070  800e              STRH     r6,[r1,#0]            ;2690
000072  1c40              ADDS     r0,r0,#1              ;2690
000074  b280              UXTH     r0,r0                 ;2690
                  |L12.118|
000076  42a8              CMP      r0,r5                 ;2690
000078  d3fa              BCC      |L12.112|
00007a  1c64              ADDS     r4,r4,#1              ;2690
00007c  b2a4              UXTH     r4,r4                 ;2686
                  |L12.126|
00007e  42bc              CMP      r4,r7                 ;2686
000080  d9ed              BLS      |L12.94|
000082  e7ea              B        |L12.90|
;;;2694   //在指定区域内填充指定颜色块			 
                          ENDP

                  |L12.132|
                          DCD      ||.bss||
                  |L12.136|
                          DCD      0x6c000800

                          AREA ||i.LCD_Init||, CODE, READONLY, ALIGN=2

                          REQUIRE _printf_percent
                          REQUIRE _printf_x
                          REQUIRE _printf_longlong_hex
                  LCD_Init PROC
;;;595    //在其他型号的驱动芯片上没有测试! 
;;;596    void LCD_Init(void)
000000  e92d4ff0          PUSH     {r4-r11,lr}
;;;597    { 					
;;;598     	GPIO_InitTypeDef GPIO_InitStructure;
;;;599    	FSMC_NORSRAMInitTypeDef  FSMC_NORSRAMInitStructure;
;;;600      FSMC_NORSRAMTimingInitTypeDef  readWriteTiming; 
;;;601    	FSMC_NORSRAMTimingInitTypeDef  writeTiming;
;;;602    	
;;;603      RCC_AHBPeriphClockCmd(RCC_AHBPeriph_FSMC,ENABLE);	//使能FSMC时钟
000004  2101              MOVS     r1,#1
000006  020e              LSLS     r6,r1,#8
000008  b09f              SUB      sp,sp,#0x7c           ;597
00000a  4630              MOV      r0,r6
00000c  f7fffffe          BL       RCC_AHBPeriphClockCmd
;;;604    	RCC_APB2PeriphClockCmd(RCC_APB2Periph_GPIOB|RCC_APB2Periph_GPIOD|RCC_APB2Periph_GPIOE|RCC_APB2Periph_GPIOG,ENABLE);//使能PORTB,D,E,G以及AFIO复用功能时钟
000010  2101              MOVS     r1,#1
000012  f44f70b4          MOV      r0,#0x168
000016  f7fffffe          BL       RCC_APB2PeriphClockCmd
;;;605    
;;;606     
;;;607     	GPIO_InitStructure.GPIO_Pin = GPIO_Pin_0;				 //PB0 推挽输出 背光
00001a  2701              MOVS     r7,#1
00001c  f8ad703c          STRH     r7,[sp,#0x3c]
;;;608     	GPIO_InitStructure.GPIO_Mode = GPIO_Mode_Out_PP; 		 //推挽输出
000020  f04f0810          MOV      r8,#0x10
000024  f88d803f          STRB     r8,[sp,#0x3f]
;;;609     	GPIO_InitStructure.GPIO_Speed = GPIO_Speed_50MHz;
000028  2403              MOVS     r4,#3
00002a  f88d403e          STRB     r4,[sp,#0x3e]
;;;610     	GPIO_Init(GPIOB, &GPIO_InitStructure);
00002e  a90f              ADD      r1,sp,#0x3c
000030  48fe              LDR      r0,|L13.1068|
000032  f7fffffe          BL       GPIO_Init
;;;611    	
;;;612     	//PORTD复用推挽输出  
;;;613    	GPIO_InitStructure.GPIO_Pin = GPIO_Pin_0|GPIO_Pin_1|GPIO_Pin_4|GPIO_Pin_5|GPIO_Pin_8|GPIO_Pin_9|GPIO_Pin_10|GPIO_Pin_14|GPIO_Pin_15;				 //	//PORTD复用推挽输出  
000036  f24c7033          MOV      r0,#0xc733
00003a  f8ad003c          STRH     r0,[sp,#0x3c]
;;;614     	GPIO_InitStructure.GPIO_Mode = GPIO_Mode_AF_PP; 		 //复用推挽输出   
00003e  2518              MOVS     r5,#0x18
000040  f88d503f          STRB     r5,[sp,#0x3f]
;;;615     	GPIO_InitStructure.GPIO_Speed = GPIO_Speed_50MHz;
000044  f88d403e          STRB     r4,[sp,#0x3e]
;;;616     	GPIO_Init(GPIOD, &GPIO_InitStructure); 
000048  a90f              ADD      r1,sp,#0x3c
00004a  48f9              LDR      r0,|L13.1072|
00004c  f7fffffe          BL       GPIO_Init
;;;617      	 
;;;618    	//PORTE复用推挽输出  
;;;619    	GPIO_InitStructure.GPIO_Pin = GPIO_Pin_7|GPIO_Pin_8|GPIO_Pin_9|GPIO_Pin_10|GPIO_Pin_11|GPIO_Pin_12|GPIO_Pin_13|GPIO_Pin_14|GPIO_Pin_15;				 //	//PORTD复用推挽输出  
000050  f64f7080          MOV      r0,#0xff80
000054  f8ad003c          STRH     r0,[sp,#0x3c]
;;;620     	GPIO_InitStructure.GPIO_Mode = GPIO_Mode_AF_PP; 		 //复用推挽输出   
000058  f88d503f          STRB     r5,[sp,#0x3f]
;;;621     	GPIO_InitStructure.GPIO_Speed = GPIO_Speed_50MHz;
00005c  f88d403e          STRB     r4,[sp,#0x3e]
;;;622     	GPIO_Init(GPIOE, &GPIO_InitStructure);    	    	 											 
000060  a90f              ADD      r1,sp,#0x3c
000062  48f4              LDR      r0,|L13.1076|
000064  f7fffffe          BL       GPIO_Init
;;;623    
;;;624       	//	//PORTG12复用推挽输出 A0	
;;;625    	GPIO_InitStructure.GPIO_Pin = GPIO_Pin_0|GPIO_Pin_12;	 //	//PORTD复用推挽输出  
000068  f2410001          MOV      r0,#0x1001
00006c  f8ad003c          STRH     r0,[sp,#0x3c]
;;;626     	GPIO_InitStructure.GPIO_Mode = GPIO_Mode_AF_PP; 		 //复用推挽输出   
000070  f88d503f          STRB     r5,[sp,#0x3f]
;;;627     	GPIO_InitStructure.GPIO_Speed = GPIO_Speed_50MHz;
000074  f88d403e          STRB     r4,[sp,#0x3e]
;;;628     	GPIO_Init(GPIOG, &GPIO_InitStructure); 
000078  a90f              ADD      r1,sp,#0x3c
00007a  48ef              LDR      r0,|L13.1080|
00007c  f7fffffe          BL       GPIO_Init
;;;629    
;;;630    	readWriteTiming.FSMC_AddressSetupTime = 0x01;	 //地址建立时间（ADDSET）为2个HCLK 1/36M=27ns
;;;631      readWriteTiming.FSMC_AddressHoldTime = 0x00;	 //地址保持时间（ADDHLD）模式A未用到	
000080  2000              MOVS     r0,#0
;;;632      readWriteTiming.FSMC_DataSetupTime = 0x0f;		 // 数据保存时间为16个HCLK,因为液晶驱动IC的读数据的时候，速度不能太快，尤其对1289这个IC。
000082  210f              MOVS     r1,#0xf
000084  e9cd0118          STRD     r0,r1,[sp,#0x60]
;;;633      readWriteTiming.FSMC_BusTurnAroundDuration = 0x00;
;;;634      readWriteTiming.FSMC_CLKDivision = 0x00;
000088  901a              STR      r0,[sp,#0x68]
;;;635      readWriteTiming.FSMC_DataLatency = 0x00;
00008a  901b              STR      r0,[sp,#0x6c]
;;;636      readWriteTiming.FSMC_AccessMode = FSMC_AccessMode_A;	 //模式A 
00008c  901c              STR      r0,[sp,#0x70]
;;;637        
;;;638    
;;;639    	writeTiming.FSMC_AddressSetupTime = 0x00;	 //地址建立时间（ADDSET）为1个HCLK  
00008e  901d              STR      r0,[sp,#0x74]
000090  9010              STR      r0,[sp,#0x40]
000092  e9cd0411          STRD     r0,r4,[sp,#0x44]
;;;640      writeTiming.FSMC_AddressHoldTime = 0x00;	 //地址保持时间（A		
;;;641      writeTiming.FSMC_DataSetupTime = 0x03;		 ////数据保存时间为4个HCLK	
;;;642      writeTiming.FSMC_BusTurnAroundDuration = 0x00;
;;;643      writeTiming.FSMC_CLKDivision = 0x00;
;;;644      writeTiming.FSMC_DataLatency = 0x00;
;;;645      writeTiming.FSMC_AccessMode = FSMC_AccessMode_A;	 //模式A 
;;;646    
;;;647     
;;;648      FSMC_NORSRAMInitStructure.FSMC_Bank = FSMC_Bank1_NORSRAM4;//  这里我们使用NE4 ，也就对应BTCR[6],[7]。
000096  e9cd0716          STRD     r0,r7,[sp,#0x58]
00009a  9014              STR      r0,[sp,#0x50]         ;644
00009c  2106              MOVS     r1,#6
00009e  9015              STR      r0,[sp,#0x54]
0000a0  e9cd1000          STRD     r1,r0,[sp,#0]
0000a4  e9cd0802          STRD     r0,r8,[sp,#8]
0000a8  9013              STR      r0,[sp,#0x4c]         ;643
;;;649      FSMC_NORSRAMInitStructure.FSMC_DataAddressMux = FSMC_DataAddressMux_Disable; // 不复用数据地址
;;;650      FSMC_NORSRAMInitStructure.FSMC_MemoryType =FSMC_MemoryType_SRAM;// FSMC_MemoryType_SRAM;  //SRAM   
;;;651      FSMC_NORSRAMInitStructure.FSMC_MemoryDataWidth = FSMC_MemoryDataWidth_16b;//存储器数据宽度为16bit   
;;;652      FSMC_NORSRAMInitStructure.FSMC_BurstAccessMode =FSMC_BurstAccessMode_Disable;// FSMC_BurstAccessMode_Disable; 
;;;653      FSMC_NORSRAMInitStructure.FSMC_WaitSignalPolarity = FSMC_WaitSignalPolarity_Low;
0000aa  9004              STR      r0,[sp,#0x10]
;;;654    	FSMC_NORSRAMInitStructure.FSMC_AsynchronousWait=FSMC_AsynchronousWait_Disable; 
;;;655      FSMC_NORSRAMInitStructure.FSMC_WrapMode = FSMC_WrapMode_Disable;   
;;;656      FSMC_NORSRAMInitStructure.FSMC_WaitSignalActive = FSMC_WaitSignalActive_BeforeWaitState;  
;;;657      FSMC_NORSRAMInitStructure.FSMC_WriteOperation = FSMC_WriteOperation_Enable;	//  存储器写使能
0000ac  0131              LSLS     r1,r6,#4
0000ae  e9cd0108          STRD     r0,r1,[sp,#0x20]
0000b2  9006              STR      r0,[sp,#0x18]         ;654
0000b4  9005              STR      r0,[sp,#0x14]         ;655
0000b6  9007              STR      r0,[sp,#0x1c]
;;;658      FSMC_NORSRAMInitStructure.FSMC_WaitSignal = FSMC_WaitSignal_Disable;   
;;;659      FSMC_NORSRAMInitStructure.FSMC_ExtendedMode = FSMC_ExtendedMode_Enable; // 读写使用不同的时序
0000b8  0089              LSLS     r1,r1,#2
0000ba  e9cd010a          STRD     r0,r1,[sp,#0x28]
;;;660      FSMC_NORSRAMInitStructure.FSMC_WriteBurst = FSMC_WriteBurst_Disable; 
;;;661      FSMC_NORSRAMInitStructure.FSMC_ReadWriteTimingStruct = &readWriteTiming; //读写时序
0000be  900c              STR      r0,[sp,#0x30]
0000c0  a817              ADD      r0,sp,#0x5c
;;;662      FSMC_NORSRAMInitStructure.FSMC_WriteTimingStruct = &writeTiming;  //写时序
0000c2  900d              STR      r0,[sp,#0x34]
0000c4  a810              ADD      r0,sp,#0x40
;;;663    
;;;664      FSMC_NORSRAMInit(&FSMC_NORSRAMInitStructure);  //初始化FSMC配置
0000c6  900e              STR      r0,[sp,#0x38]
0000c8  4668              MOV      r0,sp
0000ca  f7fffffe          BL       FSMC_NORSRAMInit
;;;665    
;;;666     	FSMC_NORSRAMCmd(FSMC_Bank1_NORSRAM4, ENABLE);  // 使能BANK1 
0000ce  2101              MOVS     r1,#1
0000d0  2006              MOVS     r0,#6
0000d2  f7fffffe          BL       FSMC_NORSRAMCmd
;;;667    		
;;;668     
;;;669    	delay_ms(50); 					// delay 50 ms 
0000d6  2032              MOVS     r0,#0x32
0000d8  f7fffffe          BL       delay_ms
;;;670      	lcddev.id=LCD_ReadReg(0x0000);	//读ID（9320/9325/9328/4531/4535等IC）   
0000dc  2000              MOVS     r0,#0
0000de  f7fffffe          BL       LCD_ReadReg
0000e2  4dd6              LDR      r5,|L13.1084|
0000e4  4cd6              LDR      r4,|L13.1088|
;;;671      	if(lcddev.id<0XFF||lcddev.id==0XFFFF||lcddev.id==0X9300)//读到ID不正确,新增lcddev.id==0X9300判断，因为9341在未被复位的情况下会被读成9300
;;;672    	{	
;;;673     		//尝试9341 ID的读取		
;;;674    		LCD_WR_REG(0XD3);				   
;;;675    		lcddev.id=LCD_RD_DATA();	//dummy read 	
;;;676     		lcddev.id=LCD_RD_DATA();	//读到0X00
;;;677      		lcddev.id=LCD_RD_DATA();   	//读取93								   
;;;678     		lcddev.id<<=8;
;;;679    		lcddev.id|=LCD_RD_DATA();  	//读取41 	   			   
;;;680     		if(lcddev.id!=0X9341)		//非9341,尝试是不是6804
0000e6  f2493941          MOV      r9,#0x9341
0000ea  80a8              STRH     r0,[r5,#4]            ;670
;;;681    		{	
;;;682     			LCD_WR_REG(0XBF);				   
;;;683    			lcddev.id=LCD_RD_DATA(); 	//dummy read 	 
;;;684    	 		lcddev.id=LCD_RD_DATA();   	//读回0X01			   
;;;685    	 		lcddev.id=LCD_RD_DATA(); 	//读回0XD0 			  	
;;;686    	  		lcddev.id=LCD_RD_DATA();	//这里读回0X68 
;;;687    			lcddev.id<<=8;
;;;688    	  		lcddev.id|=LCD_RD_DATA();	//这里读回0X04	  
;;;689    			if(lcddev.id!=0X6804)		//也不是6804,尝试看看是不是NT35310
0000ec  f6460a04          MOV      r10,#0x6804
;;;690    			{ 
;;;691    				LCD_WR_REG(0XD4);				   
;;;692    				lcddev.id=LCD_RD_DATA();//dummy read  
;;;693    				lcddev.id=LCD_RD_DATA();//读回0X01	 
;;;694    				lcddev.id=LCD_RD_DATA();//读回0X53	
;;;695    				lcddev.id<<=8;	 
;;;696    				lcddev.id|=LCD_RD_DATA();	//这里读回0X10	 
;;;697    				if(lcddev.id!=0X5310)		//也不是NT35310,尝试看看是不是NT35510
0000f0  f2453b10          MOV      r11,#0x5310
;;;698    				{
;;;699    					LCD_WR_REG(0XDA00);	
;;;700    					lcddev.id=LCD_RD_DATA();		//读回0X00	 
;;;701    					LCD_WR_REG(0XDB00);	
;;;702    					lcddev.id=LCD_RD_DATA();		//读回0X80
;;;703    					lcddev.id<<=8;	
;;;704    					LCD_WR_REG(0XDC00);	
;;;705    					lcddev.id|=LCD_RD_DATA();		//读回0X00		
;;;706    					if(lcddev.id==0x8000)lcddev.id=0x5510;//NT35510读回的ID是8000H,为方便区分,我们强制设置为5510
0000f4  f2455710          MOV      r7,#0x5510
0000f8  f64f78ff          MOV      r8,#0xffff            ;671
0000fc  28ff              CMP      r0,#0xff              ;671
0000fe  d304              BCC      |L13.266|
000100  4540              CMP      r0,r8                 ;671
000102  d002              BEQ      |L13.266|
000104  f5b04f13          CMP      r0,#0x9300            ;671
000108  d170              BNE      |L13.492|
                  |L13.266|
00010a  20d3              MOVS     r0,#0xd3              ;674
00010c  8020              STRH     r0,[r4,#0]            ;674
00010e  f7fffffe          BL       LCD_RD_DATA
000112  80a8              STRH     r0,[r5,#4]            ;675
000114  f7fffffe          BL       LCD_RD_DATA
000118  80a8              STRH     r0,[r5,#4]            ;676
00011a  f7fffffe          BL       LCD_RD_DATA
00011e  ea082000          AND      r0,r8,r0,LSL #8       ;678
000122  4641              MOV      r1,r8                 ;678
000124  80a8              STRH     r0,[r5,#4]            ;678
000126  f7fffffe          BL       LCD_RD_DATA
00012a  88aa              LDRH     r2,[r5,#4]            ;679  ; lcddev
00012c  4310              ORRS     r0,r0,r2              ;679
00012e  80a8              STRH     r0,[r5,#4]            ;679
000130  4548              CMP      r0,r9                 ;680
000132  d05b              BEQ      |L13.492|
000134  20bf              MOVS     r0,#0xbf              ;682
000136  8020              STRH     r0,[r4,#0]            ;682
000138  f7fffffe          BL       LCD_RD_DATA
00013c  80a8              STRH     r0,[r5,#4]            ;683
00013e  f7fffffe          BL       LCD_RD_DATA
000142  80a8              STRH     r0,[r5,#4]            ;684
000144  f7fffffe          BL       LCD_RD_DATA
000148  80a8              STRH     r0,[r5,#4]            ;685
00014a  f7fffffe          BL       LCD_RD_DATA
00014e  ea012000          AND      r0,r1,r0,LSL #8       ;687
000152  80a8              STRH     r0,[r5,#4]            ;687
000154  f7fffffe          BL       LCD_RD_DATA
000158  88aa              LDRH     r2,[r5,#4]            ;688  ; lcddev
00015a  4310              ORRS     r0,r0,r2              ;688
00015c  80a8              STRH     r0,[r5,#4]            ;688
00015e  4550              CMP      r0,r10                ;689
000160  d044              BEQ      |L13.492|
000162  20d4              MOVS     r0,#0xd4              ;691
000164  8020              STRH     r0,[r4,#0]            ;691
000166  f7fffffe          BL       LCD_RD_DATA
00016a  80a8              STRH     r0,[r5,#4]            ;692
00016c  f7fffffe          BL       LCD_RD_DATA
000170  80a8              STRH     r0,[r5,#4]            ;693
000172  f7fffffe          BL       LCD_RD_DATA
000176  ea012000          AND      r0,r1,r0,LSL #8       ;695
00017a  80a8              STRH     r0,[r5,#4]            ;695
00017c  f7fffffe          BL       LCD_RD_DATA
000180  88aa              LDRH     r2,[r5,#4]            ;696  ; lcddev
000182  4310              ORRS     r0,r0,r2              ;696
000184  80a8              STRH     r0,[r5,#4]            ;696
000186  4558              CMP      r0,r11                ;697
000188  d030              BEQ      |L13.492|
00018a  f44f405a          MOV      r0,#0xda00            ;699
00018e  8020              STRH     r0,[r4,#0]            ;699
000190  f7fffffe          BL       LCD_RD_DATA
000194  80a8              STRH     r0,[r5,#4]            ;700
000196  f44f405b          MOV      r0,#0xdb00            ;701
00019a  8020              STRH     r0,[r4,#0]            ;701
00019c  f7fffffe          BL       LCD_RD_DATA
0001a0  ea012000          AND      r0,r1,r0,LSL #8       ;703
0001a4  80a8              STRH     r0,[r5,#4]            ;703
0001a6  f44f405c          MOV      r0,#0xdc00            ;704
0001aa  8020              STRH     r0,[r4,#0]            ;704
0001ac  f7fffffe          BL       LCD_RD_DATA
0001b0  88aa              LDRH     r2,[r5,#4]            ;705  ; lcddev
0001b2  4310              ORRS     r0,r0,r2              ;705
0001b4  80a8              STRH     r0,[r5,#4]            ;705
0001b6  f5b04f00          CMP      r0,#0x8000
0001ba  d07d              BEQ      |L13.696|
;;;707    					if(lcddev.id!=0X5510)			//也不是NT5510,尝试看看是不是SSD1963
0001bc  42b8              CMP      r0,r7
0001be  d015              BEQ      |L13.492|
;;;708    					{
;;;709    						LCD_WR_REG(0XA1);
0001c0  20a1              MOVS     r0,#0xa1
0001c2  8020              STRH     r0,[r4,#0]
;;;710    						lcddev.id=LCD_RD_DATA();
0001c4  f7fffffe          BL       LCD_RD_DATA
0001c8  80a8              STRH     r0,[r5,#4]
;;;711    						lcddev.id=LCD_RD_DATA();	//读回0X57
0001ca  f7fffffe          BL       LCD_RD_DATA
;;;712    						lcddev.id<<=8;	 
0001ce  ea012000          AND      r0,r1,r0,LSL #8
0001d2  80a8              STRH     r0,[r5,#4]
;;;713    						lcddev.id|=LCD_RD_DATA();	//读回0X61	
0001d4  f7fffffe          BL       LCD_RD_DATA
0001d8  88a9              LDRH     r1,[r5,#4]  ; lcddev
0001da  4308              ORRS     r0,r0,r1
;;;714    						if(lcddev.id==0X5761)lcddev.id=0X1963;//SSD1963读回的ID是5761H,为方便区分,我们强制设置为1963
0001dc  f5a041ae          SUB      r1,r0,#0x5700
0001e0  80a8              STRH     r0,[r5,#4]            ;713
0001e2  3961              SUBS     r1,r1,#0x61
0001e4  d102              BNE      |L13.492|
0001e6  f6411063          MOV      r0,#0x1963
0001ea  80a8              STRH     r0,[r5,#4]
                  |L13.492|
;;;715    					}
;;;716    				}
;;;717    			}
;;;718     		}  	
;;;719    	} 
;;;720     	printf(" LCD ID:%x\r\n",lcddev.id); //打印LCD ID   
0001ec  88a9              LDRH     r1,[r5,#4]  ; lcddev
0001ee  a095              ADR      r0,|L13.1092|
0001f0  f7fffffe          BL       __2printf
;;;721    	if(lcddev.id==0X9341)	//9341初始化
0001f4  88a8              LDRH     r0,[r5,#4]  ; lcddev
0001f6  4d92              LDR      r5,|L13.1088|
0001f8  1cad              ADDS     r5,r5,#2
0001fa  4548              CMP      r0,r9
0001fc  d17e              BNE      |L13.764|
;;;722    	{	 
;;;723    		LCD_WR_REG(0xCF);  
0001fe  20cf              MOVS     r0,#0xcf
000200  8020              STRH     r0,[r4,#0]
;;;724    		LCD_WR_DATA(0x00); 
000202  2000              MOVS     r0,#0
000204  8028              STRH     r0,[r5,#0]
;;;725    		LCD_WR_DATA(0xC1); 
000206  20c1              MOVS     r0,#0xc1
000208  8028              STRH     r0,[r5,#0]
;;;726    		LCD_WR_DATA(0X30); 
00020a  2030              MOVS     r0,#0x30
00020c  8028              STRH     r0,[r5,#0]
;;;727    		LCD_WR_REG(0xED);  
00020e  20ed              MOVS     r0,#0xed
000210  8020              STRH     r0,[r4,#0]
;;;728    		LCD_WR_DATA(0x64); 
000212  2064              MOVS     r0,#0x64
000214  8028              STRH     r0,[r5,#0]
;;;729    		LCD_WR_DATA(0x03); 
000216  2003              MOVS     r0,#3
000218  8028              STRH     r0,[r5,#0]
;;;730    		LCD_WR_DATA(0X12); 
00021a  2012              MOVS     r0,#0x12
00021c  8028              STRH     r0,[r5,#0]
;;;731    		LCD_WR_DATA(0X81); 
00021e  2081              MOVS     r0,#0x81
000220  8028              STRH     r0,[r5,#0]
;;;732    		LCD_WR_REG(0xE8);  
000222  20e8              MOVS     r0,#0xe8
000224  8020              STRH     r0,[r4,#0]
;;;733    		LCD_WR_DATA(0x85); 
000226  2085              MOVS     r0,#0x85
000228  8028              STRH     r0,[r5,#0]
;;;734    		LCD_WR_DATA(0x10); 
00022a  2010              MOVS     r0,#0x10
00022c  8028              STRH     r0,[r5,#0]
;;;735    		LCD_WR_DATA(0x7A); 
00022e  207a              MOVS     r0,#0x7a
000230  8028              STRH     r0,[r5,#0]
;;;736    		LCD_WR_REG(0xCB);  
000232  20cb              MOVS     r0,#0xcb
000234  8020              STRH     r0,[r4,#0]
;;;737    		LCD_WR_DATA(0x39); 
000236  2039              MOVS     r0,#0x39
000238  8028              STRH     r0,[r5,#0]
;;;738    		LCD_WR_DATA(0x2C); 
00023a  202c              MOVS     r0,#0x2c
00023c  8028              STRH     r0,[r5,#0]
;;;739    		LCD_WR_DATA(0x00); 
00023e  2000              MOVS     r0,#0
000240  8028              STRH     r0,[r5,#0]
;;;740    		LCD_WR_DATA(0x34); 
000242  2034              MOVS     r0,#0x34
000244  8028              STRH     r0,[r5,#0]
;;;741    		LCD_WR_DATA(0x02); 
000246  2002              MOVS     r0,#2
000248  8028              STRH     r0,[r5,#0]
;;;742    		LCD_WR_REG(0xF7);  
00024a  20f7              MOVS     r0,#0xf7
00024c  8020              STRH     r0,[r4,#0]
;;;743    		LCD_WR_DATA(0x20); 
00024e  2020              MOVS     r0,#0x20
000250  8028              STRH     r0,[r5,#0]
;;;744    		LCD_WR_REG(0xEA);  
000252  20ea              MOVS     r0,#0xea
000254  8020              STRH     r0,[r4,#0]
;;;745    		LCD_WR_DATA(0x00); 
000256  2000              MOVS     r0,#0
000258  8028              STRH     r0,[r5,#0]
00025a  8028              STRH     r0,[r5,#0]
;;;746    		LCD_WR_DATA(0x00); 
;;;747    		LCD_WR_REG(0xC0);    //Power control 
00025c  20c0              MOVS     r0,#0xc0
00025e  8020              STRH     r0,[r4,#0]
;;;748    		LCD_WR_DATA(0x1B);   //VRH[5:0] 
000260  201b              MOVS     r0,#0x1b
000262  8028              STRH     r0,[r5,#0]
;;;749    		LCD_WR_REG(0xC1);    //Power control 
000264  20c1              MOVS     r0,#0xc1
000266  8020              STRH     r0,[r4,#0]
;;;750    		LCD_WR_DATA(0x01);   //SAP[2:0];BT[3:0] 
000268  2001              MOVS     r0,#1
00026a  8028              STRH     r0,[r5,#0]
;;;751    		LCD_WR_REG(0xC5);    //VCM control 
00026c  20c5              MOVS     r0,#0xc5
00026e  8020              STRH     r0,[r4,#0]
;;;752    		LCD_WR_DATA(0x30); 	 //3F
000270  2030              MOVS     r0,#0x30
000272  8028              STRH     r0,[r5,#0]
000274  8028              STRH     r0,[r5,#0]
;;;753    		LCD_WR_DATA(0x30); 	 //3C
;;;754    		LCD_WR_REG(0xC7);    //VCM control2 
000276  20c7              MOVS     r0,#0xc7
000278  8020              STRH     r0,[r4,#0]
;;;755    		LCD_WR_DATA(0XB7); 
00027a  20b7              MOVS     r0,#0xb7
00027c  8028              STRH     r0,[r5,#0]
;;;756    		LCD_WR_REG(0x36);    // Memory Access Control 
00027e  2036              MOVS     r0,#0x36
000280  8020              STRH     r0,[r4,#0]
;;;757    		LCD_WR_DATA(0x48); 
000282  2048              MOVS     r0,#0x48
000284  8028              STRH     r0,[r5,#0]
;;;758    		LCD_WR_REG(0x3A);   
000286  203a              MOVS     r0,#0x3a
000288  8020              STRH     r0,[r4,#0]
;;;759    		LCD_WR_DATA(0x55); 
00028a  2055              MOVS     r0,#0x55
00028c  8028              STRH     r0,[r5,#0]
;;;760    		LCD_WR_REG(0xB1);   
00028e  20b1              MOVS     r0,#0xb1
000290  8020              STRH     r0,[r4,#0]
;;;761    		LCD_WR_DATA(0x00);   
000292  2000              MOVS     r0,#0
000294  8028              STRH     r0,[r5,#0]
;;;762    		LCD_WR_DATA(0x1A); 
000296  201a              MOVS     r0,#0x1a
000298  8028              STRH     r0,[r5,#0]
;;;763    		LCD_WR_REG(0xB6);    // Display Function Control 
00029a  20b6              MOVS     r0,#0xb6
00029c  8020              STRH     r0,[r4,#0]
;;;764    		LCD_WR_DATA(0x0A); 
00029e  200a              MOVS     r0,#0xa
0002a0  8028              STRH     r0,[r5,#0]
;;;765    		LCD_WR_DATA(0xA2); 
0002a2  20a2              MOVS     r0,#0xa2
0002a4  8028              STRH     r0,[r5,#0]
;;;766    		LCD_WR_REG(0xF2);    // 3Gamma Function Disable 
0002a6  20f2              MOVS     r0,#0xf2
0002a8  8020              STRH     r0,[r4,#0]
;;;767    		LCD_WR_DATA(0x00); 
0002aa  2000              MOVS     r0,#0
0002ac  8028              STRH     r0,[r5,#0]
;;;768    		LCD_WR_REG(0x26);    //Gamma curve selected 
0002ae  2026              MOVS     r0,#0x26
0002b0  8020              STRH     r0,[r4,#0]
;;;769    		LCD_WR_DATA(0x01); 
0002b2  2001              MOVS     r0,#1
0002b4  8028              STRH     r0,[r5,#0]
;;;770    		LCD_WR_REG(0xE0);    //Set Gamma 
0002b6  e000              B        |L13.698|
                  |L13.696|
0002b8  e051              B        |L13.862|
                  |L13.698|
0002ba  20e0              MOVS     r0,#0xe0
0002bc  8020              STRH     r0,[r4,#0]
;;;771    		LCD_WR_DATA(0x0F); 
0002be  200f              MOVS     r0,#0xf
0002c0  8028              STRH     r0,[r5,#0]
;;;772    		LCD_WR_DATA(0x2A); 
0002c2  202a              MOVS     r0,#0x2a
0002c4  8028              STRH     r0,[r5,#0]
;;;773    		LCD_WR_DATA(0x28); 
0002c6  2028              MOVS     r0,#0x28
0002c8  8028              STRH     r0,[r5,#0]
;;;774    		LCD_WR_DATA(0x08); 
0002ca  2008              MOVS     r0,#8
0002cc  8028              STRH     r0,[r5,#0]
;;;775    		LCD_WR_DATA(0x0E); 
0002ce  200e              MOVS     r0,#0xe
0002d0  8028              STRH     r0,[r5,#0]
;;;776    		LCD_WR_DATA(0x08); 
0002d2  2008              MOVS     r0,#8
0002d4  8028              STRH     r0,[r5,#0]
;;;777    		LCD_WR_DATA(0x54); 
0002d6  2054              MOVS     r0,#0x54
0002d8  8028              STRH     r0,[r5,#0]
;;;778    		LCD_WR_DATA(0XA9); 
0002da  20a9              MOVS     r0,#0xa9
0002dc  8028              STRH     r0,[r5,#0]
;;;779    		LCD_WR_DATA(0x43); 
0002de  2043              MOVS     r0,#0x43
0002e0  8028              STRH     r0,[r5,#0]
;;;780    		LCD_WR_DATA(0x0A); 
0002e2  200a              MOVS     r0,#0xa
0002e4  8028              STRH     r0,[r5,#0]
;;;781    		LCD_WR_DATA(0x0F); 
0002e6  200f              MOVS     r0,#0xf
0002e8  8028              STRH     r0,[r5,#0]
;;;782    		LCD_WR_DATA(0x00); 
0002ea  2000              MOVS     r0,#0
0002ec  8028              STRH     r0,[r5,#0]
0002ee  8028              STRH     r0,[r5,#0]
0002f0  8028              STRH     r0,[r5,#0]
0002f2  8028              STRH     r0,[r5,#0]
;;;783    		LCD_WR_DATA(0x00); 
;;;784    		LCD_WR_DATA(0x00); 
;;;785    		LCD_WR_DATA(0x00); 		 
;;;786    		LCD_WR_REG(0XE1);    //Set Gamma 
0002f4  20e1              MOVS     r0,#0xe1
0002f6  8020              STRH     r0,[r4,#0]
;;;787    		LCD_WR_DATA(0x00); 
0002f8  2000              MOVS     r0,#0
0002fa  e000              B        |L13.766|
                  |L13.764|
0002fc  e031              B        |L13.866|
                  |L13.766|
0002fe  8028              STRH     r0,[r5,#0]
;;;788    		LCD_WR_DATA(0x15); 
000300  2015              MOVS     r0,#0x15
000302  8028              STRH     r0,[r5,#0]
;;;789    		LCD_WR_DATA(0x17); 
000304  2017              MOVS     r0,#0x17
000306  8028              STRH     r0,[r5,#0]
;;;790    		LCD_WR_DATA(0x07); 
000308  2007              MOVS     r0,#7
00030a  8028              STRH     r0,[r5,#0]
;;;791    		LCD_WR_DATA(0x11); 
00030c  2011              MOVS     r0,#0x11
00030e  8028              STRH     r0,[r5,#0]
;;;792    		LCD_WR_DATA(0x06); 
000310  2006              MOVS     r0,#6
000312  8028              STRH     r0,[r5,#0]
;;;793    		LCD_WR_DATA(0x2B); 
000314  202b              MOVS     r0,#0x2b
000316  8028              STRH     r0,[r5,#0]
;;;794    		LCD_WR_DATA(0x56); 
000318  2056              MOVS     r0,#0x56
00031a  8028              STRH     r0,[r5,#0]
;;;795    		LCD_WR_DATA(0x3C); 
00031c  203c              MOVS     r0,#0x3c
00031e  8028              STRH     r0,[r5,#0]
;;;796    		LCD_WR_DATA(0x05); 
000320  2005              MOVS     r0,#5
000322  8028              STRH     r0,[r5,#0]
;;;797    		LCD_WR_DATA(0x10); 
000324  2010              MOVS     r0,#0x10
000326  8028              STRH     r0,[r5,#0]
;;;798    		LCD_WR_DATA(0x0F); 
000328  200f              MOVS     r0,#0xf
00032a  8028              STRH     r0,[r5,#0]
;;;799    		LCD_WR_DATA(0x3F); 
00032c  203f              MOVS     r0,#0x3f
00032e  8028              STRH     r0,[r5,#0]
000330  8028              STRH     r0,[r5,#0]
;;;800    		LCD_WR_DATA(0x3F); 
;;;801    		LCD_WR_DATA(0x0F); 
000332  200f              MOVS     r0,#0xf
000334  8028              STRH     r0,[r5,#0]
;;;802    		LCD_WR_REG(0x2B); 
000336  202b              MOVS     r0,#0x2b
000338  8020              STRH     r0,[r4,#0]
;;;803    		LCD_WR_DATA(0x00);
00033a  2000              MOVS     r0,#0
00033c  8028              STRH     r0,[r5,#0]
00033e  8028              STRH     r0,[r5,#0]
;;;804    		LCD_WR_DATA(0x00);
;;;805    		LCD_WR_DATA(0x01);
000340  2001              MOVS     r0,#1
000342  8028              STRH     r0,[r5,#0]
;;;806    		LCD_WR_DATA(0x3f);
000344  203f              MOVS     r0,#0x3f
000346  8028              STRH     r0,[r5,#0]
;;;807    		LCD_WR_REG(0x2A); 
000348  202a              MOVS     r0,#0x2a
00034a  8020              STRH     r0,[r4,#0]
;;;808    		LCD_WR_DATA(0x00);
00034c  2000              MOVS     r0,#0
00034e  8028              STRH     r0,[r5,#0]
000350  8028              STRH     r0,[r5,#0]
000352  8028              STRH     r0,[r5,#0]
;;;809    		LCD_WR_DATA(0x00);
;;;810    		LCD_WR_DATA(0x00);
;;;811    		LCD_WR_DATA(0xef);	 
000354  20ef              MOVS     r0,#0xef
000356  8028              STRH     r0,[r5,#0]
;;;812    		LCD_WR_REG(0x11); //Exit Sleep
000358  2011              MOVS     r0,#0x11
00035a  8020              STRH     r0,[r4,#0]
00035c  e084              B        |L13.1128|
                  |L13.862|
00035e  80af              STRH     r7,[r5,#4]            ;706
000360  e744              B        |L13.492|
                  |L13.866|
;;;813    		delay_ms(120);
;;;814    		LCD_WR_REG(0x29); //display on	
;;;815    	}else if(lcddev.id==0x6804) //6804初始化
000362  4550              CMP      r0,r10
000364  d176              BNE      |L13.1108|
;;;816    	{
;;;817    		LCD_WR_REG(0X11);
000366  2011              MOVS     r0,#0x11
000368  8020              STRH     r0,[r4,#0]
;;;818    		delay_ms(20);
00036a  2014              MOVS     r0,#0x14
00036c  f7fffffe          BL       delay_ms
;;;819    		LCD_WR_REG(0XD0);//VCI1  VCL  VGH  VGL DDVDH VREG1OUT power amplitude setting
000370  20d0              MOVS     r0,#0xd0
000372  8020              STRH     r0,[r4,#0]
;;;820    		LCD_WR_DATA(0X07); 
000374  2007              MOVS     r0,#7
000376  8028              STRH     r0,[r5,#0]
;;;821    		LCD_WR_DATA(0X42); 
000378  2042              MOVS     r0,#0x42
00037a  8028              STRH     r0,[r5,#0]
;;;822    		LCD_WR_DATA(0X1D); 
00037c  201d              MOVS     r0,#0x1d
00037e  8028              STRH     r0,[r5,#0]
;;;823    		LCD_WR_REG(0XD1);//VCOMH VCOM_AC amplitude setting
000380  20d1              MOVS     r0,#0xd1
000382  8020              STRH     r0,[r4,#0]
;;;824    		LCD_WR_DATA(0X00);
000384  2000              MOVS     r0,#0
000386  8028              STRH     r0,[r5,#0]
;;;825    		LCD_WR_DATA(0X1a);
000388  201a              MOVS     r0,#0x1a
00038a  8028              STRH     r0,[r5,#0]
;;;826    		LCD_WR_DATA(0X09); 
00038c  2009              MOVS     r0,#9
00038e  8028              STRH     r0,[r5,#0]
;;;827    		LCD_WR_REG(0XD2);//Operational Amplifier Circuit Constant Current Adjust , charge pump frequency setting
000390  20d2              MOVS     r0,#0xd2
000392  8020              STRH     r0,[r4,#0]
;;;828    		LCD_WR_DATA(0X01);
000394  2001              MOVS     r0,#1
000396  8028              STRH     r0,[r5,#0]
;;;829    		LCD_WR_DATA(0X22);
000398  2022              MOVS     r0,#0x22
00039a  8028              STRH     r0,[r5,#0]
;;;830    		LCD_WR_REG(0XC0);//REV SM GS 
00039c  20c0              MOVS     r0,#0xc0
00039e  8020              STRH     r0,[r4,#0]
;;;831    		LCD_WR_DATA(0X10);
0003a0  2010              MOVS     r0,#0x10
0003a2  8028              STRH     r0,[r5,#0]
;;;832    		LCD_WR_DATA(0X3B);
0003a4  203b              MOVS     r0,#0x3b
0003a6  8028              STRH     r0,[r5,#0]
;;;833    		LCD_WR_DATA(0X00);
0003a8  2000              MOVS     r0,#0
0003aa  8028              STRH     r0,[r5,#0]
;;;834    		LCD_WR_DATA(0X02);
0003ac  2002              MOVS     r0,#2
0003ae  8028              STRH     r0,[r5,#0]
;;;835    		LCD_WR_DATA(0X11);
0003b0  2011              MOVS     r0,#0x11
0003b2  8028              STRH     r0,[r5,#0]
;;;836    		
;;;837    		LCD_WR_REG(0XC5);// Frame rate setting = 72HZ  when setting 0x03
0003b4  20c5              MOVS     r0,#0xc5
0003b6  8020              STRH     r0,[r4,#0]
;;;838    		LCD_WR_DATA(0X03);
0003b8  2003              MOVS     r0,#3
0003ba  8028              STRH     r0,[r5,#0]
;;;839    		
;;;840    		LCD_WR_REG(0XC8);//Gamma setting
0003bc  20c8              MOVS     r0,#0xc8
0003be  8020              STRH     r0,[r4,#0]
;;;841    		LCD_WR_DATA(0X00);
0003c0  2000              MOVS     r0,#0
0003c2  8028              STRH     r0,[r5,#0]
;;;842    		LCD_WR_DATA(0X25);
0003c4  2025              MOVS     r0,#0x25
0003c6  8028              STRH     r0,[r5,#0]
;;;843    		LCD_WR_DATA(0X21);
0003c8  2021              MOVS     r0,#0x21
0003ca  8028              STRH     r0,[r5,#0]
;;;844    		LCD_WR_DATA(0X05);
0003cc  2005              MOVS     r0,#5
0003ce  8028              STRH     r0,[r5,#0]
;;;845    		LCD_WR_DATA(0X00);
0003d0  2000              MOVS     r0,#0
0003d2  8028              STRH     r0,[r5,#0]
;;;846    		LCD_WR_DATA(0X0a);
0003d4  200a              MOVS     r0,#0xa
0003d6  8028              STRH     r0,[r5,#0]
;;;847    		LCD_WR_DATA(0X65);
0003d8  2065              MOVS     r0,#0x65
0003da  8028              STRH     r0,[r5,#0]
;;;848    		LCD_WR_DATA(0X25);
0003dc  2025              MOVS     r0,#0x25
0003de  8028              STRH     r0,[r5,#0]
;;;849    		LCD_WR_DATA(0X77);
0003e0  2077              MOVS     r0,#0x77
0003e2  8028              STRH     r0,[r5,#0]
;;;850    		LCD_WR_DATA(0X50);
0003e4  2050              MOVS     r0,#0x50
0003e6  8028              STRH     r0,[r5,#0]
;;;851    		LCD_WR_DATA(0X0f);
0003e8  200f              MOVS     r0,#0xf
0003ea  8028              STRH     r0,[r5,#0]
;;;852    		LCD_WR_DATA(0X00);	  
0003ec  2000              MOVS     r0,#0
0003ee  8028              STRH     r0,[r5,#0]
;;;853    						  
;;;854       		LCD_WR_REG(0XF8);
0003f0  20f8              MOVS     r0,#0xf8
0003f2  8020              STRH     r0,[r4,#0]
;;;855    		LCD_WR_DATA(0X01);	  
0003f4  2001              MOVS     r0,#1
0003f6  8028              STRH     r0,[r5,#0]
;;;856    
;;;857     		LCD_WR_REG(0XFE);
0003f8  20fe              MOVS     r0,#0xfe
0003fa  8020              STRH     r0,[r4,#0]
;;;858     		LCD_WR_DATA(0X00);
0003fc  2000              MOVS     r0,#0
0003fe  8028              STRH     r0,[r5,#0]
;;;859     		LCD_WR_DATA(0X02);
000400  2002              MOVS     r0,#2
000402  8028              STRH     r0,[r5,#0]
;;;860    		
;;;861    		LCD_WR_REG(0X20);//Exit invert mode
000404  2020              MOVS     r0,#0x20
000406  8020              STRH     r0,[r4,#0]
;;;862    
;;;863    		LCD_WR_REG(0X36);
000408  2036              MOVS     r0,#0x36
00040a  8020              STRH     r0,[r4,#0]
;;;864    		LCD_WR_DATA(0X08);//原来是a
00040c  2008              MOVS     r0,#8
00040e  8028              STRH     r0,[r5,#0]
;;;865    		
;;;866    		LCD_WR_REG(0X3A);
000410  203a              MOVS     r0,#0x3a
000412  8020              STRH     r0,[r4,#0]
;;;867    		LCD_WR_DATA(0X55);//16位模式	  
000414  2055              MOVS     r0,#0x55
000416  8028              STRH     r0,[r5,#0]
;;;868    		LCD_WR_REG(0X2B);
000418  202b              MOVS     r0,#0x2b
00041a  8020              STRH     r0,[r4,#0]
;;;869    		LCD_WR_DATA(0X00);
00041c  2000              MOVS     r0,#0
00041e  8028              STRH     r0,[r5,#0]
000420  8028              STRH     r0,[r5,#0]
;;;870    		LCD_WR_DATA(0X00);
;;;871    		LCD_WR_DATA(0X01);
000422  2001              MOVS     r0,#1
000424  8028              STRH     r0,[r5,#0]
;;;872    		LCD_WR_DATA(0X3F);
000426  203f              MOVS     r0,#0x3f
000428  8028              STRH     r0,[r5,#0]
;;;873    		
;;;874    		LCD_WR_REG(0X2A);
00042a  e014              B        |L13.1110|
                  |L13.1068|
                          DCD      0x40010c00
                  |L13.1072|
                          DCD      0x40011400
                  |L13.1076|
                          DCD      0x40011800
                  |L13.1080|
                          DCD      0x40012000
                  |L13.1084|
                          DCD      ||.bss||
                  |L13.1088|
                          DCD      0x6c0007fe
                  |L13.1092|
000444  204c4344          DCB      " LCD ID:%x\r\n",0
000448  2049443a
00044c  25780d0a
000450  00      
000451  00                DCB      0
000452  00                DCB      0
000453  00                DCB      0
                  |L13.1108|
000454  e00e              B        |L13.1140|
                  |L13.1110|
000456  202a              MOVS     r0,#0x2a
000458  8020              STRH     r0,[r4,#0]
;;;875    		LCD_WR_DATA(0X00);
00045a  2000              MOVS     r0,#0
00045c  8028              STRH     r0,[r5,#0]
00045e  8028              STRH     r0,[r5,#0]
;;;876    		LCD_WR_DATA(0X00);
;;;877    		LCD_WR_DATA(0X01);
000460  2001              MOVS     r0,#1
000462  8028              STRH     r0,[r5,#0]
;;;878    		LCD_WR_DATA(0XDF);
000464  20df              MOVS     r0,#0xdf
000466  8028              STRH     r0,[r5,#0]
                  |L13.1128|
;;;879    		delay_ms(120);
000468  2078              MOVS     r0,#0x78
00046a  f7fffffe          BL       delay_ms
;;;880    		LCD_WR_REG(0X29); 	 
00046e  2029              MOVS     r0,#0x29
000470  f001bc2d          B.W      |L13.7374|
                  |L13.1140|
;;;881     	}else if(lcddev.id==0x5310)
000474  4558              CMP      r0,r11
000476  d17d              BNE      |L13.1396|
;;;882    	{ 
;;;883    		LCD_WR_REG(0xED);
000478  20ed              MOVS     r0,#0xed
00047a  8020              STRH     r0,[r4,#0]
;;;884    		LCD_WR_DATA(0x01);
00047c  2001              MOVS     r0,#1
00047e  8028              STRH     r0,[r5,#0]
;;;885    		LCD_WR_DATA(0xFE);
000480  20fe              MOVS     r0,#0xfe
000482  8028              STRH     r0,[r5,#0]
;;;886    
;;;887    		LCD_WR_REG(0xEE);
000484  20ee              MOVS     r0,#0xee
000486  8020              STRH     r0,[r4,#0]
;;;888    		LCD_WR_DATA(0xDE);
000488  20de              MOVS     r0,#0xde
00048a  8028              STRH     r0,[r5,#0]
;;;889    		LCD_WR_DATA(0x21);
00048c  2021              MOVS     r0,#0x21
00048e  8028              STRH     r0,[r5,#0]
;;;890    
;;;891    		LCD_WR_REG(0xF1);
000490  20f1              MOVS     r0,#0xf1
000492  8020              STRH     r0,[r4,#0]
;;;892    		LCD_WR_DATA(0x01);
000494  2001              MOVS     r0,#1
000496  8028              STRH     r0,[r5,#0]
;;;893    		LCD_WR_REG(0xDF);
000498  20df              MOVS     r0,#0xdf
00049a  8020              STRH     r0,[r4,#0]
;;;894    		LCD_WR_DATA(0x10);
00049c  2010              MOVS     r0,#0x10
00049e  8028              STRH     r0,[r5,#0]
;;;895    
;;;896    		//VCOMvoltage//
;;;897    		LCD_WR_REG(0xC4);
0004a0  20c4              MOVS     r0,#0xc4
0004a2  8020              STRH     r0,[r4,#0]
;;;898    		LCD_WR_DATA(0x8F);	  //5f
0004a4  208f              MOVS     r0,#0x8f
0004a6  8028              STRH     r0,[r5,#0]
;;;899    
;;;900    		LCD_WR_REG(0xC6);
0004a8  20c6              MOVS     r0,#0xc6
0004aa  8020              STRH     r0,[r4,#0]
;;;901    		LCD_WR_DATA(0x00);
0004ac  2000              MOVS     r0,#0
0004ae  8028              STRH     r0,[r5,#0]
;;;902    		LCD_WR_DATA(0xE2);
0004b0  20e2              MOVS     r0,#0xe2
0004b2  8028              STRH     r0,[r5,#0]
0004b4  8028              STRH     r0,[r5,#0]
0004b6  8028              STRH     r0,[r5,#0]
;;;903    		LCD_WR_DATA(0xE2);
;;;904    		LCD_WR_DATA(0xE2);
;;;905    		LCD_WR_REG(0xBF);
0004b8  20bf              MOVS     r0,#0xbf
0004ba  8020              STRH     r0,[r4,#0]
;;;906    		LCD_WR_DATA(0xAA);
0004bc  20aa              MOVS     r0,#0xaa
0004be  8028              STRH     r0,[r5,#0]
;;;907    
;;;908    		LCD_WR_REG(0xB0);
0004c0  20b0              MOVS     r0,#0xb0
0004c2  8020              STRH     r0,[r4,#0]
;;;909    		LCD_WR_DATA(0x0D);
0004c4  200d              MOVS     r0,#0xd
0004c6  8028              STRH     r0,[r5,#0]
;;;910    		LCD_WR_DATA(0x00);
0004c8  2000              MOVS     r0,#0
0004ca  8028              STRH     r0,[r5,#0]
;;;911    		LCD_WR_DATA(0x0D);
0004cc  200d              MOVS     r0,#0xd
0004ce  8028              STRH     r0,[r5,#0]
;;;912    		LCD_WR_DATA(0x00);
0004d0  2000              MOVS     r0,#0
0004d2  8028              STRH     r0,[r5,#0]
;;;913    		LCD_WR_DATA(0x11);
0004d4  2011              MOVS     r0,#0x11
0004d6  8028              STRH     r0,[r5,#0]
;;;914    		LCD_WR_DATA(0x00);
0004d8  2000              MOVS     r0,#0
0004da  8028              STRH     r0,[r5,#0]
;;;915    		LCD_WR_DATA(0x19);
0004dc  2019              MOVS     r0,#0x19
0004de  8028              STRH     r0,[r5,#0]
;;;916    		LCD_WR_DATA(0x00);
0004e0  2000              MOVS     r0,#0
0004e2  8028              STRH     r0,[r5,#0]
;;;917    		LCD_WR_DATA(0x21);
0004e4  2021              MOVS     r0,#0x21
0004e6  8028              STRH     r0,[r5,#0]
;;;918    		LCD_WR_DATA(0x00);
0004e8  2000              MOVS     r0,#0
0004ea  8028              STRH     r0,[r5,#0]
;;;919    		LCD_WR_DATA(0x2D);
0004ec  202d              MOVS     r0,#0x2d
0004ee  8028              STRH     r0,[r5,#0]
;;;920    		LCD_WR_DATA(0x00);
0004f0  2000              MOVS     r0,#0
0004f2  8028              STRH     r0,[r5,#0]
;;;921    		LCD_WR_DATA(0x3D);
0004f4  203d              MOVS     r0,#0x3d
0004f6  8028              STRH     r0,[r5,#0]
;;;922    		LCD_WR_DATA(0x00);
0004f8  2000              MOVS     r0,#0
0004fa  8028              STRH     r0,[r5,#0]
;;;923    		LCD_WR_DATA(0x5D);
0004fc  205d              MOVS     r0,#0x5d
0004fe  8028              STRH     r0,[r5,#0]
;;;924    		LCD_WR_DATA(0x00);
000500  2000              MOVS     r0,#0
000502  8028              STRH     r0,[r5,#0]
;;;925    		LCD_WR_DATA(0x5D);
000504  205d              MOVS     r0,#0x5d
000506  8028              STRH     r0,[r5,#0]
;;;926    		LCD_WR_DATA(0x00);
000508  2000              MOVS     r0,#0
00050a  8028              STRH     r0,[r5,#0]
;;;927    
;;;928    		LCD_WR_REG(0xB1);
00050c  20b1              MOVS     r0,#0xb1
00050e  8020              STRH     r0,[r4,#0]
;;;929    		LCD_WR_DATA(0x80);
000510  2080              MOVS     r0,#0x80
000512  8028              STRH     r0,[r5,#0]
;;;930    		LCD_WR_DATA(0x00);
000514  2000              MOVS     r0,#0
000516  8028              STRH     r0,[r5,#0]
;;;931    		LCD_WR_DATA(0x8B);
000518  208b              MOVS     r0,#0x8b
00051a  8028              STRH     r0,[r5,#0]
;;;932    		LCD_WR_DATA(0x00);
00051c  2000              MOVS     r0,#0
00051e  8028              STRH     r0,[r5,#0]
;;;933    		LCD_WR_DATA(0x96);
000520  2096              MOVS     r0,#0x96
000522  8028              STRH     r0,[r5,#0]
;;;934    		LCD_WR_DATA(0x00);
000524  2000              MOVS     r0,#0
000526  8028              STRH     r0,[r5,#0]
;;;935    
;;;936    		LCD_WR_REG(0xB2);
000528  20b2              MOVS     r0,#0xb2
00052a  8020              STRH     r0,[r4,#0]
;;;937    		LCD_WR_DATA(0x00);
00052c  2000              MOVS     r0,#0
00052e  8028              STRH     r0,[r5,#0]
000530  8028              STRH     r0,[r5,#0]
;;;938    		LCD_WR_DATA(0x00);
;;;939    		LCD_WR_DATA(0x02);
000532  2002              MOVS     r0,#2
000534  8028              STRH     r0,[r5,#0]
;;;940    		LCD_WR_DATA(0x00);
000536  2000              MOVS     r0,#0
000538  8028              STRH     r0,[r5,#0]
;;;941    		LCD_WR_DATA(0x03);
00053a  2003              MOVS     r0,#3
00053c  8028              STRH     r0,[r5,#0]
;;;942    		LCD_WR_DATA(0x00);
00053e  2000              MOVS     r0,#0
000540  8028              STRH     r0,[r5,#0]
;;;943    
;;;944    		LCD_WR_REG(0xB3);
000542  20b3              MOVS     r0,#0xb3
000544  8020              STRH     r0,[r4,#0]
;;;945    		LCD_WR_DATA(0x00);
000546  2000              MOVS     r0,#0
000548  8028              STRH     r0,[r5,#0]
00054a  8028              STRH     r0,[r5,#0]
00054c  8028              STRH     r0,[r5,#0]
00054e  8028              STRH     r0,[r5,#0]
000550  8028              STRH     r0,[r5,#0]
000552  8028              STRH     r0,[r5,#0]
000554  8028              STRH     r0,[r5,#0]
000556  8028              STRH     r0,[r5,#0]
000558  8028              STRH     r0,[r5,#0]
00055a  8028              STRH     r0,[r5,#0]
00055c  8028              STRH     r0,[r5,#0]
00055e  8028              STRH     r0,[r5,#0]
000560  8028              STRH     r0,[r5,#0]
000562  8028              STRH     r0,[r5,#0]
000564  8028              STRH     r0,[r5,#0]
000566  8028              STRH     r0,[r5,#0]
000568  8028              STRH     r0,[r5,#0]
00056a  8028              STRH     r0,[r5,#0]
00056c  8028              STRH     r0,[r5,#0]
00056e  8028              STRH     r0,[r5,#0]
000570  8028              STRH     r0,[r5,#0]
000572  e000              B        |L13.1398|
                  |L13.1396|
000574  e3fe              B        |L13.3444|
                  |L13.1398|
000576  8028              STRH     r0,[r5,#0]
000578  8028              STRH     r0,[r5,#0]
00057a  8028              STRH     r0,[r5,#0]
;;;946    		LCD_WR_DATA(0x00);
;;;947    		LCD_WR_DATA(0x00);
;;;948    		LCD_WR_DATA(0x00);
;;;949    		LCD_WR_DATA(0x00);
;;;950    		LCD_WR_DATA(0x00);
;;;951    		LCD_WR_DATA(0x00);
;;;952    		LCD_WR_DATA(0x00);
;;;953    		LCD_WR_DATA(0x00);
;;;954    		LCD_WR_DATA(0x00);
;;;955    		LCD_WR_DATA(0x00);
;;;956    		LCD_WR_DATA(0x00);
;;;957    		LCD_WR_DATA(0x00);
;;;958    		LCD_WR_DATA(0x00);
;;;959    		LCD_WR_DATA(0x00);
;;;960    		LCD_WR_DATA(0x00);
;;;961    		LCD_WR_DATA(0x00);
;;;962    		LCD_WR_DATA(0x00);
;;;963    		LCD_WR_DATA(0x00);
;;;964    		LCD_WR_DATA(0x00);
;;;965    		LCD_WR_DATA(0x00);
;;;966    		LCD_WR_DATA(0x00);
;;;967    		LCD_WR_DATA(0x00);
;;;968    		LCD_WR_DATA(0x00);
;;;969    
;;;970    		LCD_WR_REG(0xB4);
00057c  20b4              MOVS     r0,#0xb4
00057e  8020              STRH     r0,[r4,#0]
;;;971    		LCD_WR_DATA(0x8B);
000580  208b              MOVS     r0,#0x8b
000582  8028              STRH     r0,[r5,#0]
;;;972    		LCD_WR_DATA(0x00);
000584  2000              MOVS     r0,#0
000586  8028              STRH     r0,[r5,#0]
;;;973    		LCD_WR_DATA(0x96);
000588  2096              MOVS     r0,#0x96
00058a  8028              STRH     r0,[r5,#0]
;;;974    		LCD_WR_DATA(0x00);
00058c  2000              MOVS     r0,#0
00058e  8028              STRH     r0,[r5,#0]
;;;975    		LCD_WR_DATA(0xA1);
000590  20a1              MOVS     r0,#0xa1
000592  8028              STRH     r0,[r5,#0]
;;;976    		LCD_WR_DATA(0x00);
000594  2000              MOVS     r0,#0
000596  8028              STRH     r0,[r5,#0]
;;;977    
;;;978    		LCD_WR_REG(0xB5);
000598  20b5              MOVS     r0,#0xb5
00059a  8020              STRH     r0,[r4,#0]
;;;979    		LCD_WR_DATA(0x02);
00059c  2002              MOVS     r0,#2
00059e  8028              STRH     r0,[r5,#0]
;;;980    		LCD_WR_DATA(0x00);
0005a0  2000              MOVS     r0,#0
0005a2  8028              STRH     r0,[r5,#0]
;;;981    		LCD_WR_DATA(0x03);
0005a4  2003              MOVS     r0,#3
0005a6  8028              STRH     r0,[r5,#0]
;;;982    		LCD_WR_DATA(0x00);
0005a8  2000              MOVS     r0,#0
0005aa  8028              STRH     r0,[r5,#0]
;;;983    		LCD_WR_DATA(0x04);
0005ac  2004              MOVS     r0,#4
0005ae  8028              STRH     r0,[r5,#0]
;;;984    		LCD_WR_DATA(0x00);
0005b0  2000              MOVS     r0,#0
0005b2  8028              STRH     r0,[r5,#0]
;;;985    
;;;986    		LCD_WR_REG(0xB6);
0005b4  20b6              MOVS     r0,#0xb6
0005b6  8020              STRH     r0,[r4,#0]
;;;987    		LCD_WR_DATA(0x00);
0005b8  2000              MOVS     r0,#0
0005ba  8028              STRH     r0,[r5,#0]
0005bc  8028              STRH     r0,[r5,#0]
;;;988    		LCD_WR_DATA(0x00);
;;;989    
;;;990    		LCD_WR_REG(0xB7);
0005be  20b7              MOVS     r0,#0xb7
0005c0  8020              STRH     r0,[r4,#0]
;;;991    		LCD_WR_DATA(0x00);
0005c2  2000              MOVS     r0,#0
0005c4  8028              STRH     r0,[r5,#0]
0005c6  8028              STRH     r0,[r5,#0]
;;;992    		LCD_WR_DATA(0x00);
;;;993    		LCD_WR_DATA(0x3F);
0005c8  203f              MOVS     r0,#0x3f
0005ca  8028              STRH     r0,[r5,#0]
;;;994    		LCD_WR_DATA(0x00);
0005cc  2000              MOVS     r0,#0
0005ce  8028              STRH     r0,[r5,#0]
;;;995    		LCD_WR_DATA(0x5E);
0005d0  205e              MOVS     r0,#0x5e
0005d2  8028              STRH     r0,[r5,#0]
;;;996    		LCD_WR_DATA(0x00);
0005d4  2000              MOVS     r0,#0
0005d6  8028              STRH     r0,[r5,#0]
;;;997    		LCD_WR_DATA(0x64);
0005d8  2064              MOVS     r0,#0x64
0005da  8028              STRH     r0,[r5,#0]
;;;998    		LCD_WR_DATA(0x00);
0005dc  2000              MOVS     r0,#0
0005de  8028              STRH     r0,[r5,#0]
;;;999    		LCD_WR_DATA(0x8C);
0005e0  208c              MOVS     r0,#0x8c
0005e2  8028              STRH     r0,[r5,#0]
;;;1000   		LCD_WR_DATA(0x00);
0005e4  2000              MOVS     r0,#0
0005e6  8028              STRH     r0,[r5,#0]
;;;1001   		LCD_WR_DATA(0xAC);
0005e8  20ac              MOVS     r0,#0xac
0005ea  8028              STRH     r0,[r5,#0]
;;;1002   		LCD_WR_DATA(0x00);
0005ec  2000              MOVS     r0,#0
0005ee  8028              STRH     r0,[r5,#0]
;;;1003   		LCD_WR_DATA(0xDC);
0005f0  20dc              MOVS     r0,#0xdc
0005f2  8028              STRH     r0,[r5,#0]
;;;1004   		LCD_WR_DATA(0x00);
0005f4  2000              MOVS     r0,#0
0005f6  8028              STRH     r0,[r5,#0]
;;;1005   		LCD_WR_DATA(0x70);
0005f8  2070              MOVS     r0,#0x70
0005fa  8028              STRH     r0,[r5,#0]
;;;1006   		LCD_WR_DATA(0x00);
0005fc  2000              MOVS     r0,#0
0005fe  8028              STRH     r0,[r5,#0]
;;;1007   		LCD_WR_DATA(0x90);
000600  2090              MOVS     r0,#0x90
000602  8028              STRH     r0,[r5,#0]
;;;1008   		LCD_WR_DATA(0x00);
000604  2000              MOVS     r0,#0
000606  8028              STRH     r0,[r5,#0]
;;;1009   		LCD_WR_DATA(0xEB);
000608  20eb              MOVS     r0,#0xeb
00060a  8028              STRH     r0,[r5,#0]
;;;1010   		LCD_WR_DATA(0x00);
00060c  2000              MOVS     r0,#0
00060e  8028              STRH     r0,[r5,#0]
;;;1011   		LCD_WR_DATA(0xDC);
000610  20dc              MOVS     r0,#0xdc
000612  8028              STRH     r0,[r5,#0]
;;;1012   		LCD_WR_DATA(0x00);
000614  2000              MOVS     r0,#0
000616  8028              STRH     r0,[r5,#0]
;;;1013   
;;;1014   		LCD_WR_REG(0xB8);
000618  20b8              MOVS     r0,#0xb8
00061a  8020              STRH     r0,[r4,#0]
;;;1015   		LCD_WR_DATA(0x00);
00061c  2000              MOVS     r0,#0
00061e  8028              STRH     r0,[r5,#0]
000620  8028              STRH     r0,[r5,#0]
000622  8028              STRH     r0,[r5,#0]
000624  8028              STRH     r0,[r5,#0]
000626  8028              STRH     r0,[r5,#0]
000628  8028              STRH     r0,[r5,#0]
00062a  8028              STRH     r0,[r5,#0]
00062c  8028              STRH     r0,[r5,#0]
;;;1016   		LCD_WR_DATA(0x00);
;;;1017   		LCD_WR_DATA(0x00);
;;;1018   		LCD_WR_DATA(0x00);
;;;1019   		LCD_WR_DATA(0x00);
;;;1020   		LCD_WR_DATA(0x00);
;;;1021   		LCD_WR_DATA(0x00);
;;;1022   		LCD_WR_DATA(0x00);
;;;1023   
;;;1024   		LCD_WR_REG(0xBA);
00062e  20ba              MOVS     r0,#0xba
000630  8020              STRH     r0,[r4,#0]
;;;1025   		LCD_WR_DATA(0x24);
000632  2024              MOVS     r0,#0x24
000634  8028              STRH     r0,[r5,#0]
;;;1026   		LCD_WR_DATA(0x00);
000636  2000              MOVS     r0,#0
000638  8028              STRH     r0,[r5,#0]
00063a  8028              STRH     r0,[r5,#0]
00063c  8028              STRH     r0,[r5,#0]
;;;1027   		LCD_WR_DATA(0x00);
;;;1028   		LCD_WR_DATA(0x00);
;;;1029   
;;;1030   		LCD_WR_REG(0xC1);
00063e  20c1              MOVS     r0,#0xc1
000640  8020              STRH     r0,[r4,#0]
;;;1031   		LCD_WR_DATA(0x20);
000642  2020              MOVS     r0,#0x20
000644  8028              STRH     r0,[r5,#0]
;;;1032   		LCD_WR_DATA(0x00);
000646  2000              MOVS     r0,#0
000648  8028              STRH     r0,[r5,#0]
;;;1033   		LCD_WR_DATA(0x54);
00064a  2054              MOVS     r0,#0x54
00064c  8028              STRH     r0,[r5,#0]
;;;1034   		LCD_WR_DATA(0x00);
00064e  2000              MOVS     r0,#0
000650  8028              STRH     r0,[r5,#0]
;;;1035   		LCD_WR_DATA(0xFF);
000652  20ff              MOVS     r0,#0xff
000654  8028              STRH     r0,[r5,#0]
;;;1036   		LCD_WR_DATA(0x00);
000656  2000              MOVS     r0,#0
000658  8028              STRH     r0,[r5,#0]
;;;1037   
;;;1038   		LCD_WR_REG(0xC2);
00065a  20c2              MOVS     r0,#0xc2
00065c  8020              STRH     r0,[r4,#0]
;;;1039   		LCD_WR_DATA(0x0A);
00065e  200a              MOVS     r0,#0xa
000660  8028              STRH     r0,[r5,#0]
;;;1040   		LCD_WR_DATA(0x00);
000662  2000              MOVS     r0,#0
000664  8028              STRH     r0,[r5,#0]
;;;1041   		LCD_WR_DATA(0x04);
000666  2004              MOVS     r0,#4
000668  8028              STRH     r0,[r5,#0]
;;;1042   		LCD_WR_DATA(0x00);
00066a  2000              MOVS     r0,#0
00066c  8028              STRH     r0,[r5,#0]
;;;1043   
;;;1044   		LCD_WR_REG(0xC3);
00066e  20c3              MOVS     r0,#0xc3
000670  8020              STRH     r0,[r4,#0]
;;;1045   		LCD_WR_DATA(0x3C);
000672  203c              MOVS     r0,#0x3c
000674  8028              STRH     r0,[r5,#0]
;;;1046   		LCD_WR_DATA(0x00);
000676  2000              MOVS     r0,#0
000678  8028              STRH     r0,[r5,#0]
;;;1047   		LCD_WR_DATA(0x3A);
00067a  203a              MOVS     r0,#0x3a
00067c  8028              STRH     r0,[r5,#0]
;;;1048   		LCD_WR_DATA(0x00);
00067e  2000              MOVS     r0,#0
000680  8028              STRH     r0,[r5,#0]
;;;1049   		LCD_WR_DATA(0x39);
000682  2039              MOVS     r0,#0x39
000684  8028              STRH     r0,[r5,#0]
;;;1050   		LCD_WR_DATA(0x00);
000686  2000              MOVS     r0,#0
000688  8028              STRH     r0,[r5,#0]
;;;1051   		LCD_WR_DATA(0x37);
00068a  2037              MOVS     r0,#0x37
00068c  8028              STRH     r0,[r5,#0]
;;;1052   		LCD_WR_DATA(0x00);
00068e  2000              MOVS     r0,#0
000690  8028              STRH     r0,[r5,#0]
;;;1053   		LCD_WR_DATA(0x3C);
000692  203c              MOVS     r0,#0x3c
000694  8028              STRH     r0,[r5,#0]
;;;1054   		LCD_WR_DATA(0x00);
000696  2000              MOVS     r0,#0
000698  8028              STRH     r0,[r5,#0]
;;;1055   		LCD_WR_DATA(0x36);
00069a  2036              MOVS     r0,#0x36
00069c  8028              STRH     r0,[r5,#0]
;;;1056   		LCD_WR_DATA(0x00);
00069e  2000              MOVS     r0,#0
0006a0  8028              STRH     r0,[r5,#0]
;;;1057   		LCD_WR_DATA(0x32);
0006a2  2032              MOVS     r0,#0x32
0006a4  8028              STRH     r0,[r5,#0]
;;;1058   		LCD_WR_DATA(0x00);
0006a6  2000              MOVS     r0,#0
0006a8  8028              STRH     r0,[r5,#0]
;;;1059   		LCD_WR_DATA(0x2F);
0006aa  202f              MOVS     r0,#0x2f
0006ac  8028              STRH     r0,[r5,#0]
;;;1060   		LCD_WR_DATA(0x00);
0006ae  2000              MOVS     r0,#0
0006b0  8028              STRH     r0,[r5,#0]
;;;1061   		LCD_WR_DATA(0x2C);
0006b2  202c              MOVS     r0,#0x2c
0006b4  8028              STRH     r0,[r5,#0]
;;;1062   		LCD_WR_DATA(0x00);
0006b6  2000              MOVS     r0,#0
0006b8  8028              STRH     r0,[r5,#0]
;;;1063   		LCD_WR_DATA(0x29);
0006ba  2029              MOVS     r0,#0x29
0006bc  8028              STRH     r0,[r5,#0]
;;;1064   		LCD_WR_DATA(0x00);
0006be  2000              MOVS     r0,#0
0006c0  8028              STRH     r0,[r5,#0]
;;;1065   		LCD_WR_DATA(0x26);
0006c2  2026              MOVS     r0,#0x26
0006c4  8028              STRH     r0,[r5,#0]
;;;1066   		LCD_WR_DATA(0x00);
0006c6  2000              MOVS     r0,#0
0006c8  8028              STRH     r0,[r5,#0]
;;;1067   		LCD_WR_DATA(0x24);
0006ca  2024              MOVS     r0,#0x24
0006cc  8028              STRH     r0,[r5,#0]
;;;1068   		LCD_WR_DATA(0x00);
0006ce  2000              MOVS     r0,#0
0006d0  8028              STRH     r0,[r5,#0]
;;;1069   		LCD_WR_DATA(0x24);
0006d2  2024              MOVS     r0,#0x24
0006d4  8028              STRH     r0,[r5,#0]
;;;1070   		LCD_WR_DATA(0x00);
0006d6  2000              MOVS     r0,#0
0006d8  8028              STRH     r0,[r5,#0]
;;;1071   		LCD_WR_DATA(0x23);
0006da  2023              MOVS     r0,#0x23
0006dc  8028              STRH     r0,[r5,#0]
;;;1072   		LCD_WR_DATA(0x00);
0006de  2000              MOVS     r0,#0
0006e0  8028              STRH     r0,[r5,#0]
;;;1073   		LCD_WR_DATA(0x3C);
0006e2  203c              MOVS     r0,#0x3c
0006e4  8028              STRH     r0,[r5,#0]
;;;1074   		LCD_WR_DATA(0x00);
0006e6  2000              MOVS     r0,#0
0006e8  8028              STRH     r0,[r5,#0]
;;;1075   		LCD_WR_DATA(0x36);
0006ea  2036              MOVS     r0,#0x36
0006ec  8028              STRH     r0,[r5,#0]
;;;1076   		LCD_WR_DATA(0x00);
0006ee  2000              MOVS     r0,#0
0006f0  8028              STRH     r0,[r5,#0]
;;;1077   		LCD_WR_DATA(0x32);
0006f2  2032              MOVS     r0,#0x32
0006f4  8028              STRH     r0,[r5,#0]
;;;1078   		LCD_WR_DATA(0x00);
0006f6  2000              MOVS     r0,#0
0006f8  8028              STRH     r0,[r5,#0]
;;;1079   		LCD_WR_DATA(0x2F);
0006fa  202f              MOVS     r0,#0x2f
0006fc  8028              STRH     r0,[r5,#0]
;;;1080   		LCD_WR_DATA(0x00);
0006fe  2000              MOVS     r0,#0
000700  8028              STRH     r0,[r5,#0]
;;;1081   		LCD_WR_DATA(0x2C);
000702  202c              MOVS     r0,#0x2c
000704  8028              STRH     r0,[r5,#0]
;;;1082   		LCD_WR_DATA(0x00);
000706  2000              MOVS     r0,#0
000708  8028              STRH     r0,[r5,#0]
;;;1083   		LCD_WR_DATA(0x29);
00070a  2029              MOVS     r0,#0x29
00070c  8028              STRH     r0,[r5,#0]
;;;1084   		LCD_WR_DATA(0x00);
00070e  2000              MOVS     r0,#0
000710  8028              STRH     r0,[r5,#0]
;;;1085   		LCD_WR_DATA(0x26);
000712  2026              MOVS     r0,#0x26
000714  8028              STRH     r0,[r5,#0]
;;;1086   		LCD_WR_DATA(0x00);
000716  2000              MOVS     r0,#0
000718  8028              STRH     r0,[r5,#0]
;;;1087   		LCD_WR_DATA(0x24);
00071a  2024              MOVS     r0,#0x24
00071c  8028              STRH     r0,[r5,#0]
;;;1088   		LCD_WR_DATA(0x00);
00071e  2000              MOVS     r0,#0
000720  8028              STRH     r0,[r5,#0]
;;;1089   		LCD_WR_DATA(0x24);
000722  2024              MOVS     r0,#0x24
000724  8028              STRH     r0,[r5,#0]
;;;1090   		LCD_WR_DATA(0x00);
000726  2000              MOVS     r0,#0
000728  8028              STRH     r0,[r5,#0]
;;;1091   		LCD_WR_DATA(0x23);
00072a  2023              MOVS     r0,#0x23
00072c  8028              STRH     r0,[r5,#0]
;;;1092   		LCD_WR_DATA(0x00);
00072e  2000              MOVS     r0,#0
000730  8028              STRH     r0,[r5,#0]
;;;1093   
;;;1094   		LCD_WR_REG(0xC4);
000732  20c4              MOVS     r0,#0xc4
000734  8020              STRH     r0,[r4,#0]
;;;1095   		LCD_WR_DATA(0x62);
000736  2062              MOVS     r0,#0x62
000738  8028              STRH     r0,[r5,#0]
;;;1096   		LCD_WR_DATA(0x00);
00073a  2000              MOVS     r0,#0
00073c  8028              STRH     r0,[r5,#0]
;;;1097   		LCD_WR_DATA(0x05);
00073e  2005              MOVS     r0,#5
000740  8028              STRH     r0,[r5,#0]
;;;1098   		LCD_WR_DATA(0x00);
000742  2000              MOVS     r0,#0
000744  8028              STRH     r0,[r5,#0]
;;;1099   		LCD_WR_DATA(0x84);
000746  2084              MOVS     r0,#0x84
000748  8028              STRH     r0,[r5,#0]
;;;1100   		LCD_WR_DATA(0x00);
00074a  2000              MOVS     r0,#0
00074c  8028              STRH     r0,[r5,#0]
;;;1101   		LCD_WR_DATA(0xF0);
00074e  20f0              MOVS     r0,#0xf0
000750  8028              STRH     r0,[r5,#0]
;;;1102   		LCD_WR_DATA(0x00);
000752  2000              MOVS     r0,#0
000754  8028              STRH     r0,[r5,#0]
;;;1103   		LCD_WR_DATA(0x18);
000756  2018              MOVS     r0,#0x18
000758  8028              STRH     r0,[r5,#0]
;;;1104   		LCD_WR_DATA(0x00);
00075a  2000              MOVS     r0,#0
00075c  8028              STRH     r0,[r5,#0]
;;;1105   		LCD_WR_DATA(0xA4);
00075e  20a4              MOVS     r0,#0xa4
000760  8028              STRH     r0,[r5,#0]
;;;1106   		LCD_WR_DATA(0x00);
000762  2000              MOVS     r0,#0
000764  8028              STRH     r0,[r5,#0]
;;;1107   		LCD_WR_DATA(0x18);
000766  2018              MOVS     r0,#0x18
000768  8028              STRH     r0,[r5,#0]
;;;1108   		LCD_WR_DATA(0x00);
00076a  2000              MOVS     r0,#0
00076c  8028              STRH     r0,[r5,#0]
;;;1109   		LCD_WR_DATA(0x50);
00076e  2050              MOVS     r0,#0x50
000770  8028              STRH     r0,[r5,#0]
;;;1110   		LCD_WR_DATA(0x00);
000772  2000              MOVS     r0,#0
000774  8028              STRH     r0,[r5,#0]
;;;1111   		LCD_WR_DATA(0x0C);
000776  200c              MOVS     r0,#0xc
000778  8028              STRH     r0,[r5,#0]
;;;1112   		LCD_WR_DATA(0x00);
00077a  2000              MOVS     r0,#0
00077c  8028              STRH     r0,[r5,#0]
;;;1113   		LCD_WR_DATA(0x17);
00077e  2017              MOVS     r0,#0x17
000780  8028              STRH     r0,[r5,#0]
;;;1114   		LCD_WR_DATA(0x00);
000782  2000              MOVS     r0,#0
000784  8028              STRH     r0,[r5,#0]
;;;1115   		LCD_WR_DATA(0x95);
000786  2095              MOVS     r0,#0x95
000788  8028              STRH     r0,[r5,#0]
;;;1116   		LCD_WR_DATA(0x00);
00078a  2000              MOVS     r0,#0
00078c  8028              STRH     r0,[r5,#0]
;;;1117   		LCD_WR_DATA(0xF3);
00078e  20f3              MOVS     r0,#0xf3
000790  8028              STRH     r0,[r5,#0]
;;;1118   		LCD_WR_DATA(0x00);
000792  2000              MOVS     r0,#0
000794  8028              STRH     r0,[r5,#0]
;;;1119   		LCD_WR_DATA(0xE6);
000796  20e6              MOVS     r0,#0xe6
000798  8028              STRH     r0,[r5,#0]
;;;1120   		LCD_WR_DATA(0x00);
00079a  2000              MOVS     r0,#0
00079c  8028              STRH     r0,[r5,#0]
;;;1121   
;;;1122   		LCD_WR_REG(0xC5);
00079e  20c5              MOVS     r0,#0xc5
0007a0  8020              STRH     r0,[r4,#0]
;;;1123   		LCD_WR_DATA(0x32);
0007a2  2032              MOVS     r0,#0x32
0007a4  8028              STRH     r0,[r5,#0]
;;;1124   		LCD_WR_DATA(0x00);
0007a6  2000              MOVS     r0,#0
0007a8  8028              STRH     r0,[r5,#0]
;;;1125   		LCD_WR_DATA(0x44);
0007aa  2044              MOVS     r0,#0x44
0007ac  8028              STRH     r0,[r5,#0]
;;;1126   		LCD_WR_DATA(0x00);
0007ae  2000              MOVS     r0,#0
0007b0  8028              STRH     r0,[r5,#0]
;;;1127   		LCD_WR_DATA(0x65);
0007b2  2065              MOVS     r0,#0x65
0007b4  8028              STRH     r0,[r5,#0]
;;;1128   		LCD_WR_DATA(0x00);
0007b6  2000              MOVS     r0,#0
0007b8  8028              STRH     r0,[r5,#0]
;;;1129   		LCD_WR_DATA(0x76);
0007ba  2076              MOVS     r0,#0x76
0007bc  8028              STRH     r0,[r5,#0]
;;;1130   		LCD_WR_DATA(0x00);
0007be  2000              MOVS     r0,#0
0007c0  8028              STRH     r0,[r5,#0]
;;;1131   		LCD_WR_DATA(0x88);
0007c2  2088              MOVS     r0,#0x88
0007c4  8028              STRH     r0,[r5,#0]
;;;1132   		LCD_WR_DATA(0x00);
0007c6  2000              MOVS     r0,#0
0007c8  8028              STRH     r0,[r5,#0]
;;;1133   
;;;1134   		LCD_WR_REG(0xC6);
0007ca  20c6              MOVS     r0,#0xc6
0007cc  8020              STRH     r0,[r4,#0]
;;;1135   		LCD_WR_DATA(0x20);
0007ce  2020              MOVS     r0,#0x20
0007d0  8028              STRH     r0,[r5,#0]
;;;1136   		LCD_WR_DATA(0x00);
0007d2  2000              MOVS     r0,#0
0007d4  8028              STRH     r0,[r5,#0]
;;;1137   		LCD_WR_DATA(0x17);
0007d6  2017              MOVS     r0,#0x17
0007d8  8028              STRH     r0,[r5,#0]
;;;1138   		LCD_WR_DATA(0x00);
0007da  2000              MOVS     r0,#0
0007dc  8028              STRH     r0,[r5,#0]
;;;1139   		LCD_WR_DATA(0x01);
0007de  2001              MOVS     r0,#1
0007e0  8028              STRH     r0,[r5,#0]
;;;1140   		LCD_WR_DATA(0x00);
0007e2  2000              MOVS     r0,#0
0007e4  8028              STRH     r0,[r5,#0]
;;;1141   
;;;1142   		LCD_WR_REG(0xC7);
0007e6  20c7              MOVS     r0,#0xc7
0007e8  8020              STRH     r0,[r4,#0]
;;;1143   		LCD_WR_DATA(0x00);
0007ea  2000              MOVS     r0,#0
0007ec  8028              STRH     r0,[r5,#0]
0007ee  8028              STRH     r0,[r5,#0]
0007f0  8028              STRH     r0,[r5,#0]
0007f2  8028              STRH     r0,[r5,#0]
;;;1144   		LCD_WR_DATA(0x00);
;;;1145   		LCD_WR_DATA(0x00);
;;;1146   		LCD_WR_DATA(0x00);
;;;1147   
;;;1148   		LCD_WR_REG(0xC8);
0007f4  20c8              MOVS     r0,#0xc8
0007f6  8020              STRH     r0,[r4,#0]
;;;1149   		LCD_WR_DATA(0x00);
0007f8  2000              MOVS     r0,#0
0007fa  8028              STRH     r0,[r5,#0]
0007fc  8028              STRH     r0,[r5,#0]
0007fe  8028              STRH     r0,[r5,#0]
000800  8028              STRH     r0,[r5,#0]
;;;1150   		LCD_WR_DATA(0x00);
;;;1151   		LCD_WR_DATA(0x00);
;;;1152   		LCD_WR_DATA(0x00);
;;;1153   
;;;1154   		LCD_WR_REG(0xC9);
000802  20c9              MOVS     r0,#0xc9
000804  8020              STRH     r0,[r4,#0]
;;;1155   		LCD_WR_DATA(0x00);
000806  2000              MOVS     r0,#0
000808  8028              STRH     r0,[r5,#0]
00080a  8028              STRH     r0,[r5,#0]
00080c  8028              STRH     r0,[r5,#0]
00080e  8028              STRH     r0,[r5,#0]
000810  8028              STRH     r0,[r5,#0]
000812  8028              STRH     r0,[r5,#0]
000814  8028              STRH     r0,[r5,#0]
000816  8028              STRH     r0,[r5,#0]
000818  8028              STRH     r0,[r5,#0]
00081a  8028              STRH     r0,[r5,#0]
00081c  8028              STRH     r0,[r5,#0]
00081e  8028              STRH     r0,[r5,#0]
000820  8028              STRH     r0,[r5,#0]
000822  8028              STRH     r0,[r5,#0]
000824  8028              STRH     r0,[r5,#0]
000826  8028              STRH     r0,[r5,#0]
;;;1156   		LCD_WR_DATA(0x00);
;;;1157   		LCD_WR_DATA(0x00);
;;;1158   		LCD_WR_DATA(0x00);
;;;1159   		LCD_WR_DATA(0x00);
;;;1160   		LCD_WR_DATA(0x00);
;;;1161   		LCD_WR_DATA(0x00);
;;;1162   		LCD_WR_DATA(0x00);
;;;1163   		LCD_WR_DATA(0x00);
;;;1164   		LCD_WR_DATA(0x00);
;;;1165   		LCD_WR_DATA(0x00);
;;;1166   		LCD_WR_DATA(0x00);
;;;1167   		LCD_WR_DATA(0x00);
;;;1168   		LCD_WR_DATA(0x00);
;;;1169   		LCD_WR_DATA(0x00);
;;;1170   		LCD_WR_DATA(0x00);
;;;1171   
;;;1172   		LCD_WR_REG(0xE0);
000828  20e0              MOVS     r0,#0xe0
00082a  8020              STRH     r0,[r4,#0]
;;;1173   		LCD_WR_DATA(0x16);
00082c  2016              MOVS     r0,#0x16
00082e  8028              STRH     r0,[r5,#0]
;;;1174   		LCD_WR_DATA(0x00);
000830  2000              MOVS     r0,#0
000832  8028              STRH     r0,[r5,#0]
;;;1175   		LCD_WR_DATA(0x1C);
000834  201c              MOVS     r0,#0x1c
000836  8028              STRH     r0,[r5,#0]
;;;1176   		LCD_WR_DATA(0x00);
000838  2000              MOVS     r0,#0
00083a  8028              STRH     r0,[r5,#0]
;;;1177   		LCD_WR_DATA(0x21);
00083c  2021              MOVS     r0,#0x21
00083e  8028              STRH     r0,[r5,#0]
;;;1178   		LCD_WR_DATA(0x00);
000840  2000              MOVS     r0,#0
000842  8028              STRH     r0,[r5,#0]
;;;1179   		LCD_WR_DATA(0x36);
000844  2036              MOVS     r0,#0x36
000846  8028              STRH     r0,[r5,#0]
;;;1180   		LCD_WR_DATA(0x00);
000848  2000              MOVS     r0,#0
00084a  8028              STRH     r0,[r5,#0]
;;;1181   		LCD_WR_DATA(0x46);
00084c  2046              MOVS     r0,#0x46
00084e  8028              STRH     r0,[r5,#0]
;;;1182   		LCD_WR_DATA(0x00);
000850  2000              MOVS     r0,#0
000852  8028              STRH     r0,[r5,#0]
;;;1183   		LCD_WR_DATA(0x52);
000854  2052              MOVS     r0,#0x52
000856  8028              STRH     r0,[r5,#0]
;;;1184   		LCD_WR_DATA(0x00);
000858  2000              MOVS     r0,#0
00085a  8028              STRH     r0,[r5,#0]
;;;1185   		LCD_WR_DATA(0x64);
00085c  2064              MOVS     r0,#0x64
00085e  8028              STRH     r0,[r5,#0]
;;;1186   		LCD_WR_DATA(0x00);
000860  2000              MOVS     r0,#0
000862  8028              STRH     r0,[r5,#0]
;;;1187   		LCD_WR_DATA(0x7A);
000864  207a              MOVS     r0,#0x7a
000866  8028              STRH     r0,[r5,#0]
;;;1188   		LCD_WR_DATA(0x00);
000868  2000              MOVS     r0,#0
00086a  8028              STRH     r0,[r5,#0]
;;;1189   		LCD_WR_DATA(0x8B);
00086c  208b              MOVS     r0,#0x8b
00086e  8028              STRH     r0,[r5,#0]
;;;1190   		LCD_WR_DATA(0x00);
000870  2000              MOVS     r0,#0
000872  8028              STRH     r0,[r5,#0]
;;;1191   		LCD_WR_DATA(0x99);
000874  2099              MOVS     r0,#0x99
000876  8028              STRH     r0,[r5,#0]
;;;1192   		LCD_WR_DATA(0x00);
000878  2000              MOVS     r0,#0
00087a  8028              STRH     r0,[r5,#0]
;;;1193   		LCD_WR_DATA(0xA8);
00087c  20a8              MOVS     r0,#0xa8
00087e  8028              STRH     r0,[r5,#0]
;;;1194   		LCD_WR_DATA(0x00);
000880  2000              MOVS     r0,#0
000882  8028              STRH     r0,[r5,#0]
;;;1195   		LCD_WR_DATA(0xB9);
000884  20b9              MOVS     r0,#0xb9
000886  8028              STRH     r0,[r5,#0]
;;;1196   		LCD_WR_DATA(0x00);
000888  2000              MOVS     r0,#0
00088a  8028              STRH     r0,[r5,#0]
;;;1197   		LCD_WR_DATA(0xC4);
00088c  20c4              MOVS     r0,#0xc4
00088e  8028              STRH     r0,[r5,#0]
;;;1198   		LCD_WR_DATA(0x00);
000890  2000              MOVS     r0,#0
000892  8028              STRH     r0,[r5,#0]
;;;1199   		LCD_WR_DATA(0xCA);
000894  20ca              MOVS     r0,#0xca
000896  8028              STRH     r0,[r5,#0]
;;;1200   		LCD_WR_DATA(0x00);
000898  2000              MOVS     r0,#0
00089a  8028              STRH     r0,[r5,#0]
;;;1201   		LCD_WR_DATA(0xD2);
00089c  20d2              MOVS     r0,#0xd2
00089e  8028              STRH     r0,[r5,#0]
;;;1202   		LCD_WR_DATA(0x00);
0008a0  2000              MOVS     r0,#0
0008a2  8028              STRH     r0,[r5,#0]
;;;1203   		LCD_WR_DATA(0xD9);
0008a4  20d9              MOVS     r0,#0xd9
0008a6  8028              STRH     r0,[r5,#0]
;;;1204   		LCD_WR_DATA(0x00);
0008a8  2000              MOVS     r0,#0
0008aa  8028              STRH     r0,[r5,#0]
;;;1205   		LCD_WR_DATA(0xE0);
0008ac  20e0              MOVS     r0,#0xe0
0008ae  8028              STRH     r0,[r5,#0]
;;;1206   		LCD_WR_DATA(0x00);
0008b0  2000              MOVS     r0,#0
0008b2  8028              STRH     r0,[r5,#0]
;;;1207   		LCD_WR_DATA(0xF3);
0008b4  20f3              MOVS     r0,#0xf3
0008b6  8028              STRH     r0,[r5,#0]
;;;1208   		LCD_WR_DATA(0x00);
0008b8  2000              MOVS     r0,#0
0008ba  8028              STRH     r0,[r5,#0]
;;;1209   
;;;1210   		LCD_WR_REG(0xE1);
0008bc  20e1              MOVS     r0,#0xe1
0008be  8020              STRH     r0,[r4,#0]
;;;1211   		LCD_WR_DATA(0x16);
0008c0  2016              MOVS     r0,#0x16
0008c2  8028              STRH     r0,[r5,#0]
;;;1212   		LCD_WR_DATA(0x00);
0008c4  2000              MOVS     r0,#0
0008c6  8028              STRH     r0,[r5,#0]
;;;1213   		LCD_WR_DATA(0x1C);
0008c8  201c              MOVS     r0,#0x1c
0008ca  8028              STRH     r0,[r5,#0]
;;;1214   		LCD_WR_DATA(0x00);
0008cc  2000              MOVS     r0,#0
0008ce  8028              STRH     r0,[r5,#0]
;;;1215   		LCD_WR_DATA(0x22);
0008d0  2022              MOVS     r0,#0x22
0008d2  8028              STRH     r0,[r5,#0]
;;;1216   		LCD_WR_DATA(0x00);
0008d4  2000              MOVS     r0,#0
0008d6  8028              STRH     r0,[r5,#0]
;;;1217   		LCD_WR_DATA(0x36);
0008d8  2036              MOVS     r0,#0x36
0008da  8028              STRH     r0,[r5,#0]
;;;1218   		LCD_WR_DATA(0x00);
0008dc  2000              MOVS     r0,#0
0008de  8028              STRH     r0,[r5,#0]
;;;1219   		LCD_WR_DATA(0x45);
0008e0  2045              MOVS     r0,#0x45
0008e2  8028              STRH     r0,[r5,#0]
;;;1220   		LCD_WR_DATA(0x00);
0008e4  2000              MOVS     r0,#0
0008e6  8028              STRH     r0,[r5,#0]
;;;1221   		LCD_WR_DATA(0x52);
0008e8  2052              MOVS     r0,#0x52
0008ea  8028              STRH     r0,[r5,#0]
;;;1222   		LCD_WR_DATA(0x00);
0008ec  2000              MOVS     r0,#0
0008ee  8028              STRH     r0,[r5,#0]
;;;1223   		LCD_WR_DATA(0x64);
0008f0  2064              MOVS     r0,#0x64
0008f2  8028              STRH     r0,[r5,#0]
;;;1224   		LCD_WR_DATA(0x00);
0008f4  2000              MOVS     r0,#0
0008f6  8028              STRH     r0,[r5,#0]
;;;1225   		LCD_WR_DATA(0x7A);
0008f8  207a              MOVS     r0,#0x7a
0008fa  8028              STRH     r0,[r5,#0]
;;;1226   		LCD_WR_DATA(0x00);
0008fc  2000              MOVS     r0,#0
0008fe  8028              STRH     r0,[r5,#0]
;;;1227   		LCD_WR_DATA(0x8B);
000900  208b              MOVS     r0,#0x8b
000902  8028              STRH     r0,[r5,#0]
;;;1228   		LCD_WR_DATA(0x00);
000904  2000              MOVS     r0,#0
000906  8028              STRH     r0,[r5,#0]
;;;1229   		LCD_WR_DATA(0x99);
000908  2099              MOVS     r0,#0x99
00090a  8028              STRH     r0,[r5,#0]
;;;1230   		LCD_WR_DATA(0x00);
00090c  2000              MOVS     r0,#0
00090e  8028              STRH     r0,[r5,#0]
;;;1231   		LCD_WR_DATA(0xA8);
000910  20a8              MOVS     r0,#0xa8
000912  8028              STRH     r0,[r5,#0]
;;;1232   		LCD_WR_DATA(0x00);
000914  2000              MOVS     r0,#0
000916  8028              STRH     r0,[r5,#0]
;;;1233   		LCD_WR_DATA(0xB9);
000918  20b9              MOVS     r0,#0xb9
00091a  8028              STRH     r0,[r5,#0]
;;;1234   		LCD_WR_DATA(0x00);
00091c  2000              MOVS     r0,#0
00091e  8028              STRH     r0,[r5,#0]
;;;1235   		LCD_WR_DATA(0xC4);
000920  20c4              MOVS     r0,#0xc4
000922  8028              STRH     r0,[r5,#0]
;;;1236   		LCD_WR_DATA(0x00);
000924  2000              MOVS     r0,#0
000926  8028              STRH     r0,[r5,#0]
;;;1237   		LCD_WR_DATA(0xCA);
000928  20ca              MOVS     r0,#0xca
00092a  8028              STRH     r0,[r5,#0]
;;;1238   		LCD_WR_DATA(0x00);
00092c  2000              MOVS     r0,#0
00092e  8028              STRH     r0,[r5,#0]
;;;1239   		LCD_WR_DATA(0xD2);
000930  20d2              MOVS     r0,#0xd2
000932  8028              STRH     r0,[r5,#0]
;;;1240   		LCD_WR_DATA(0x00);
000934  2000              MOVS     r0,#0
000936  8028              STRH     r0,[r5,#0]
;;;1241   		LCD_WR_DATA(0xD8);
000938  20d8              MOVS     r0,#0xd8
00093a  8028              STRH     r0,[r5,#0]
;;;1242   		LCD_WR_DATA(0x00);
00093c  2000              MOVS     r0,#0
00093e  8028              STRH     r0,[r5,#0]
;;;1243   		LCD_WR_DATA(0xE0);
000940  20e0              MOVS     r0,#0xe0
000942  8028              STRH     r0,[r5,#0]
;;;1244   		LCD_WR_DATA(0x00);
000944  2000              MOVS     r0,#0
000946  8028              STRH     r0,[r5,#0]
;;;1245   		LCD_WR_DATA(0xF3);
000948  20f3              MOVS     r0,#0xf3
00094a  8028              STRH     r0,[r5,#0]
;;;1246   		LCD_WR_DATA(0x00);
00094c  2000              MOVS     r0,#0
00094e  8028              STRH     r0,[r5,#0]
;;;1247   
;;;1248   		LCD_WR_REG(0xE2);
000950  20e2              MOVS     r0,#0xe2
000952  8020              STRH     r0,[r4,#0]
;;;1249   		LCD_WR_DATA(0x05);
000954  2005              MOVS     r0,#5
000956  8028              STRH     r0,[r5,#0]
;;;1250   		LCD_WR_DATA(0x00);
000958  2000              MOVS     r0,#0
00095a  8028              STRH     r0,[r5,#0]
;;;1251   		LCD_WR_DATA(0x0B);
00095c  200b              MOVS     r0,#0xb
00095e  8028              STRH     r0,[r5,#0]
;;;1252   		LCD_WR_DATA(0x00);
000960  2000              MOVS     r0,#0
000962  8028              STRH     r0,[r5,#0]
;;;1253   		LCD_WR_DATA(0x1B);
000964  201b              MOVS     r0,#0x1b
000966  8028              STRH     r0,[r5,#0]
;;;1254   		LCD_WR_DATA(0x00);
000968  2000              MOVS     r0,#0
00096a  8028              STRH     r0,[r5,#0]
;;;1255   		LCD_WR_DATA(0x34);
00096c  2034              MOVS     r0,#0x34
00096e  8028              STRH     r0,[r5,#0]
;;;1256   		LCD_WR_DATA(0x00);
000970  2000              MOVS     r0,#0
000972  8028              STRH     r0,[r5,#0]
;;;1257   		LCD_WR_DATA(0x44);
000974  2044              MOVS     r0,#0x44
000976  8028              STRH     r0,[r5,#0]
;;;1258   		LCD_WR_DATA(0x00);
000978  2000              MOVS     r0,#0
00097a  8028              STRH     r0,[r5,#0]
;;;1259   		LCD_WR_DATA(0x4F);
00097c  204f              MOVS     r0,#0x4f
00097e  8028              STRH     r0,[r5,#0]
;;;1260   		LCD_WR_DATA(0x00);
000980  2000              MOVS     r0,#0
000982  8028              STRH     r0,[r5,#0]
;;;1261   		LCD_WR_DATA(0x61);
000984  2061              MOVS     r0,#0x61
000986  8028              STRH     r0,[r5,#0]
;;;1262   		LCD_WR_DATA(0x00);
000988  2000              MOVS     r0,#0
00098a  8028              STRH     r0,[r5,#0]
;;;1263   		LCD_WR_DATA(0x79);
00098c  2079              MOVS     r0,#0x79
00098e  8028              STRH     r0,[r5,#0]
;;;1264   		LCD_WR_DATA(0x00);
000990  2000              MOVS     r0,#0
000992  8028              STRH     r0,[r5,#0]
;;;1265   		LCD_WR_DATA(0x88);
000994  2088              MOVS     r0,#0x88
000996  8028              STRH     r0,[r5,#0]
;;;1266   		LCD_WR_DATA(0x00);
000998  2000              MOVS     r0,#0
00099a  8028              STRH     r0,[r5,#0]
;;;1267   		LCD_WR_DATA(0x97);
00099c  2097              MOVS     r0,#0x97
00099e  8028              STRH     r0,[r5,#0]
;;;1268   		LCD_WR_DATA(0x00);
0009a0  2000              MOVS     r0,#0
0009a2  8028              STRH     r0,[r5,#0]
;;;1269   		LCD_WR_DATA(0xA6);
0009a4  20a6              MOVS     r0,#0xa6
0009a6  8028              STRH     r0,[r5,#0]
;;;1270   		LCD_WR_DATA(0x00);
0009a8  2000              MOVS     r0,#0
0009aa  8028              STRH     r0,[r5,#0]
;;;1271   		LCD_WR_DATA(0xB7);
0009ac  20b7              MOVS     r0,#0xb7
0009ae  8028              STRH     r0,[r5,#0]
;;;1272   		LCD_WR_DATA(0x00);
0009b0  2000              MOVS     r0,#0
0009b2  8028              STRH     r0,[r5,#0]
;;;1273   		LCD_WR_DATA(0xC2);
0009b4  20c2              MOVS     r0,#0xc2
0009b6  8028              STRH     r0,[r5,#0]
;;;1274   		LCD_WR_DATA(0x00);
0009b8  2000              MOVS     r0,#0
0009ba  8028              STRH     r0,[r5,#0]
;;;1275   		LCD_WR_DATA(0xC7);
0009bc  20c7              MOVS     r0,#0xc7
0009be  8028              STRH     r0,[r5,#0]
;;;1276   		LCD_WR_DATA(0x00);
0009c0  2000              MOVS     r0,#0
0009c2  8028              STRH     r0,[r5,#0]
;;;1277   		LCD_WR_DATA(0xD1);
0009c4  20d1              MOVS     r0,#0xd1
0009c6  8028              STRH     r0,[r5,#0]
;;;1278   		LCD_WR_DATA(0x00);
0009c8  2000              MOVS     r0,#0
0009ca  8028              STRH     r0,[r5,#0]
;;;1279   		LCD_WR_DATA(0xD6);
0009cc  20d6              MOVS     r0,#0xd6
0009ce  8028              STRH     r0,[r5,#0]
;;;1280   		LCD_WR_DATA(0x00);
0009d0  2000              MOVS     r0,#0
0009d2  8028              STRH     r0,[r5,#0]
;;;1281   		LCD_WR_DATA(0xDD);
0009d4  20dd              MOVS     r0,#0xdd
0009d6  8028              STRH     r0,[r5,#0]
;;;1282   		LCD_WR_DATA(0x00);
0009d8  2000              MOVS     r0,#0
0009da  8028              STRH     r0,[r5,#0]
;;;1283   		LCD_WR_DATA(0xF3);
0009dc  20f3              MOVS     r0,#0xf3
0009de  8028              STRH     r0,[r5,#0]
;;;1284   		LCD_WR_DATA(0x00);
0009e0  2000              MOVS     r0,#0
0009e2  8028              STRH     r0,[r5,#0]
;;;1285   		LCD_WR_REG(0xE3);
0009e4  20e3              MOVS     r0,#0xe3
0009e6  8020              STRH     r0,[r4,#0]
;;;1286   		LCD_WR_DATA(0x05);
0009e8  2005              MOVS     r0,#5
0009ea  8028              STRH     r0,[r5,#0]
;;;1287   		LCD_WR_DATA(0x00);
0009ec  2000              MOVS     r0,#0
0009ee  8028              STRH     r0,[r5,#0]
;;;1288   		LCD_WR_DATA(0xA);
0009f0  200a              MOVS     r0,#0xa
0009f2  8028              STRH     r0,[r5,#0]
;;;1289   		LCD_WR_DATA(0x00);
0009f4  2000              MOVS     r0,#0
0009f6  8028              STRH     r0,[r5,#0]
;;;1290   		LCD_WR_DATA(0x1C);
0009f8  201c              MOVS     r0,#0x1c
0009fa  8028              STRH     r0,[r5,#0]
;;;1291   		LCD_WR_DATA(0x00);
0009fc  2000              MOVS     r0,#0
0009fe  8028              STRH     r0,[r5,#0]
;;;1292   		LCD_WR_DATA(0x33);
000a00  2033              MOVS     r0,#0x33
000a02  8028              STRH     r0,[r5,#0]
;;;1293   		LCD_WR_DATA(0x00);
000a04  2000              MOVS     r0,#0
000a06  8028              STRH     r0,[r5,#0]
;;;1294   		LCD_WR_DATA(0x44);
000a08  2044              MOVS     r0,#0x44
000a0a  8028              STRH     r0,[r5,#0]
;;;1295   		LCD_WR_DATA(0x00);
000a0c  2000              MOVS     r0,#0
000a0e  8028              STRH     r0,[r5,#0]
;;;1296   		LCD_WR_DATA(0x50);
000a10  2050              MOVS     r0,#0x50
000a12  8028              STRH     r0,[r5,#0]
;;;1297   		LCD_WR_DATA(0x00);
000a14  2000              MOVS     r0,#0
000a16  8028              STRH     r0,[r5,#0]
;;;1298   		LCD_WR_DATA(0x62);
000a18  2062              MOVS     r0,#0x62
000a1a  8028              STRH     r0,[r5,#0]
;;;1299   		LCD_WR_DATA(0x00);
000a1c  2000              MOVS     r0,#0
000a1e  8028              STRH     r0,[r5,#0]
;;;1300   		LCD_WR_DATA(0x78);
000a20  2078              MOVS     r0,#0x78
000a22  8028              STRH     r0,[r5,#0]
;;;1301   		LCD_WR_DATA(0x00);
000a24  2000              MOVS     r0,#0
000a26  8028              STRH     r0,[r5,#0]
;;;1302   		LCD_WR_DATA(0x88);
000a28  2088              MOVS     r0,#0x88
000a2a  8028              STRH     r0,[r5,#0]
;;;1303   		LCD_WR_DATA(0x00);
000a2c  2000              MOVS     r0,#0
000a2e  8028              STRH     r0,[r5,#0]
;;;1304   		LCD_WR_DATA(0x97);
000a30  2097              MOVS     r0,#0x97
000a32  8028              STRH     r0,[r5,#0]
;;;1305   		LCD_WR_DATA(0x00);
000a34  2000              MOVS     r0,#0
000a36  8028              STRH     r0,[r5,#0]
;;;1306   		LCD_WR_DATA(0xA6);
000a38  20a6              MOVS     r0,#0xa6
000a3a  8028              STRH     r0,[r5,#0]
;;;1307   		LCD_WR_DATA(0x00);
000a3c  2000              MOVS     r0,#0
000a3e  8028              STRH     r0,[r5,#0]
;;;1308   		LCD_WR_DATA(0xB7);
000a40  20b7              MOVS     r0,#0xb7
000a42  8028              STRH     r0,[r5,#0]
;;;1309   		LCD_WR_DATA(0x00);
000a44  2000              MOVS     r0,#0
000a46  8028              STRH     r0,[r5,#0]
;;;1310   		LCD_WR_DATA(0xC2);
000a48  20c2              MOVS     r0,#0xc2
000a4a  8028              STRH     r0,[r5,#0]
;;;1311   		LCD_WR_DATA(0x00);
000a4c  2000              MOVS     r0,#0
000a4e  8028              STRH     r0,[r5,#0]
;;;1312   		LCD_WR_DATA(0xC7);
000a50  20c7              MOVS     r0,#0xc7
000a52  8028              STRH     r0,[r5,#0]
;;;1313   		LCD_WR_DATA(0x00);
000a54  2000              MOVS     r0,#0
000a56  8028              STRH     r0,[r5,#0]
;;;1314   		LCD_WR_DATA(0xD1);
000a58  20d1              MOVS     r0,#0xd1
000a5a  8028              STRH     r0,[r5,#0]
;;;1315   		LCD_WR_DATA(0x00);
000a5c  2000              MOVS     r0,#0
000a5e  8028              STRH     r0,[r5,#0]
;;;1316   		LCD_WR_DATA(0xD5);
000a60  20d5              MOVS     r0,#0xd5
000a62  8028              STRH     r0,[r5,#0]
;;;1317   		LCD_WR_DATA(0x00);
000a64  2000              MOVS     r0,#0
000a66  8028              STRH     r0,[r5,#0]
;;;1318   		LCD_WR_DATA(0xDD);
000a68  20dd              MOVS     r0,#0xdd
000a6a  8028              STRH     r0,[r5,#0]
;;;1319   		LCD_WR_DATA(0x00);
000a6c  2000              MOVS     r0,#0
000a6e  8028              STRH     r0,[r5,#0]
;;;1320   		LCD_WR_DATA(0xF3);
000a70  20f3              MOVS     r0,#0xf3
000a72  8028              STRH     r0,[r5,#0]
;;;1321   		LCD_WR_DATA(0x00);
000a74  2000              MOVS     r0,#0
000a76  8028              STRH     r0,[r5,#0]
;;;1322   
;;;1323   		LCD_WR_REG(0xE4);
000a78  20e4              MOVS     r0,#0xe4
000a7a  8020              STRH     r0,[r4,#0]
;;;1324   		LCD_WR_DATA(0x01);
000a7c  2001              MOVS     r0,#1
000a7e  8028              STRH     r0,[r5,#0]
;;;1325   		LCD_WR_DATA(0x00);
000a80  2000              MOVS     r0,#0
000a82  8028              STRH     r0,[r5,#0]
;;;1326   		LCD_WR_DATA(0x01);
000a84  2001              MOVS     r0,#1
000a86  8028              STRH     r0,[r5,#0]
;;;1327   		LCD_WR_DATA(0x00);
000a88  2000              MOVS     r0,#0
000a8a  8028              STRH     r0,[r5,#0]
;;;1328   		LCD_WR_DATA(0x02);
000a8c  2002              MOVS     r0,#2
000a8e  8028              STRH     r0,[r5,#0]
;;;1329   		LCD_WR_DATA(0x00);
000a90  2000              MOVS     r0,#0
000a92  8028              STRH     r0,[r5,#0]
;;;1330   		LCD_WR_DATA(0x2A);
000a94  202a              MOVS     r0,#0x2a
000a96  8028              STRH     r0,[r5,#0]
;;;1331   		LCD_WR_DATA(0x00);
000a98  2000              MOVS     r0,#0
000a9a  8028              STRH     r0,[r5,#0]
;;;1332   		LCD_WR_DATA(0x3C);
000a9c  203c              MOVS     r0,#0x3c
000a9e  8028              STRH     r0,[r5,#0]
;;;1333   		LCD_WR_DATA(0x00);
000aa0  2000              MOVS     r0,#0
000aa2  8028              STRH     r0,[r5,#0]
;;;1334   		LCD_WR_DATA(0x4B);
000aa4  204b              MOVS     r0,#0x4b
000aa6  8028              STRH     r0,[r5,#0]
;;;1335   		LCD_WR_DATA(0x00);
000aa8  2000              MOVS     r0,#0
000aaa  8028              STRH     r0,[r5,#0]
;;;1336   		LCD_WR_DATA(0x5D);
000aac  205d              MOVS     r0,#0x5d
000aae  8028              STRH     r0,[r5,#0]
;;;1337   		LCD_WR_DATA(0x00);
000ab0  2000              MOVS     r0,#0
000ab2  8028              STRH     r0,[r5,#0]
;;;1338   		LCD_WR_DATA(0x74);
000ab4  2074              MOVS     r0,#0x74
000ab6  8028              STRH     r0,[r5,#0]
;;;1339   		LCD_WR_DATA(0x00);
000ab8  2000              MOVS     r0,#0
000aba  8028              STRH     r0,[r5,#0]
;;;1340   		LCD_WR_DATA(0x84);
000abc  2084              MOVS     r0,#0x84
000abe  8028              STRH     r0,[r5,#0]
;;;1341   		LCD_WR_DATA(0x00);
000ac0  2000              MOVS     r0,#0
000ac2  8028              STRH     r0,[r5,#0]
;;;1342   		LCD_WR_DATA(0x93);
000ac4  2093              MOVS     r0,#0x93
000ac6  8028              STRH     r0,[r5,#0]
;;;1343   		LCD_WR_DATA(0x00);
000ac8  2000              MOVS     r0,#0
000aca  8028              STRH     r0,[r5,#0]
;;;1344   		LCD_WR_DATA(0xA2);
000acc  20a2              MOVS     r0,#0xa2
000ace  8028              STRH     r0,[r5,#0]
;;;1345   		LCD_WR_DATA(0x00);
000ad0  2000              MOVS     r0,#0
000ad2  8028              STRH     r0,[r5,#0]
;;;1346   		LCD_WR_DATA(0xB3);
000ad4  20b3              MOVS     r0,#0xb3
000ad6  8028              STRH     r0,[r5,#0]
;;;1347   		LCD_WR_DATA(0x00);
000ad8  2000              MOVS     r0,#0
000ada  8028              STRH     r0,[r5,#0]
;;;1348   		LCD_WR_DATA(0xBE);
000adc  20be              MOVS     r0,#0xbe
000ade  8028              STRH     r0,[r5,#0]
;;;1349   		LCD_WR_DATA(0x00);
000ae0  2000              MOVS     r0,#0
000ae2  8028              STRH     r0,[r5,#0]
;;;1350   		LCD_WR_DATA(0xC4);
000ae4  20c4              MOVS     r0,#0xc4
000ae6  8028              STRH     r0,[r5,#0]
;;;1351   		LCD_WR_DATA(0x00);
000ae8  2000              MOVS     r0,#0
000aea  8028              STRH     r0,[r5,#0]
;;;1352   		LCD_WR_DATA(0xCD);
000aec  20cd              MOVS     r0,#0xcd
000aee  8028              STRH     r0,[r5,#0]
;;;1353   		LCD_WR_DATA(0x00);
000af0  2000              MOVS     r0,#0
000af2  8028              STRH     r0,[r5,#0]
;;;1354   		LCD_WR_DATA(0xD3);
000af4  20d3              MOVS     r0,#0xd3
000af6  8028              STRH     r0,[r5,#0]
;;;1355   		LCD_WR_DATA(0x00);
000af8  2000              MOVS     r0,#0
000afa  8028              STRH     r0,[r5,#0]
;;;1356   		LCD_WR_DATA(0xDD);
000afc  20dd              MOVS     r0,#0xdd
000afe  8028              STRH     r0,[r5,#0]
;;;1357   		LCD_WR_DATA(0x00);
000b00  2000              MOVS     r0,#0
000b02  8028              STRH     r0,[r5,#0]
;;;1358   		LCD_WR_DATA(0xF3);
000b04  20f3              MOVS     r0,#0xf3
000b06  8028              STRH     r0,[r5,#0]
;;;1359   		LCD_WR_DATA(0x00);
000b08  2000              MOVS     r0,#0
000b0a  8028              STRH     r0,[r5,#0]
;;;1360   		LCD_WR_REG(0xE5);
000b0c  20e5              MOVS     r0,#0xe5
000b0e  8020              STRH     r0,[r4,#0]
;;;1361   		LCD_WR_DATA(0x00);
000b10  2000              MOVS     r0,#0
000b12  8028              STRH     r0,[r5,#0]
000b14  8028              STRH     r0,[r5,#0]
000b16  8028              STRH     r0,[r5,#0]
000b18  8028              STRH     r0,[r5,#0]
;;;1362   		LCD_WR_DATA(0x00);
;;;1363   		LCD_WR_DATA(0x00);
;;;1364   		LCD_WR_DATA(0x00);
;;;1365   		LCD_WR_DATA(0x02);
000b1a  2002              MOVS     r0,#2
000b1c  8028              STRH     r0,[r5,#0]
;;;1366   		LCD_WR_DATA(0x00);
000b1e  2000              MOVS     r0,#0
000b20  8028              STRH     r0,[r5,#0]
;;;1367   		LCD_WR_DATA(0x29);
000b22  2029              MOVS     r0,#0x29
000b24  8028              STRH     r0,[r5,#0]
;;;1368   		LCD_WR_DATA(0x00);
000b26  2000              MOVS     r0,#0
000b28  8028              STRH     r0,[r5,#0]
;;;1369   		LCD_WR_DATA(0x3C);
000b2a  203c              MOVS     r0,#0x3c
000b2c  8028              STRH     r0,[r5,#0]
;;;1370   		LCD_WR_DATA(0x00);
000b2e  2000              MOVS     r0,#0
000b30  8028              STRH     r0,[r5,#0]
;;;1371   		LCD_WR_DATA(0x4B);
000b32  204b              MOVS     r0,#0x4b
000b34  8028              STRH     r0,[r5,#0]
;;;1372   		LCD_WR_DATA(0x00);
000b36  2000              MOVS     r0,#0
000b38  8028              STRH     r0,[r5,#0]
;;;1373   		LCD_WR_DATA(0x5D);
000b3a  205d              MOVS     r0,#0x5d
000b3c  8028              STRH     r0,[r5,#0]
;;;1374   		LCD_WR_DATA(0x00);
000b3e  2000              MOVS     r0,#0
000b40  8028              STRH     r0,[r5,#0]
;;;1375   		LCD_WR_DATA(0x74);
000b42  2074              MOVS     r0,#0x74
000b44  8028              STRH     r0,[r5,#0]
;;;1376   		LCD_WR_DATA(0x00);
000b46  2000              MOVS     r0,#0
000b48  8028              STRH     r0,[r5,#0]
;;;1377   		LCD_WR_DATA(0x84);
000b4a  2084              MOVS     r0,#0x84
000b4c  8028              STRH     r0,[r5,#0]
;;;1378   		LCD_WR_DATA(0x00);
000b4e  2000              MOVS     r0,#0
000b50  8028              STRH     r0,[r5,#0]
;;;1379   		LCD_WR_DATA(0x93);
000b52  2093              MOVS     r0,#0x93
000b54  8028              STRH     r0,[r5,#0]
;;;1380   		LCD_WR_DATA(0x00);
000b56  2000              MOVS     r0,#0
000b58  8028              STRH     r0,[r5,#0]
;;;1381   		LCD_WR_DATA(0xA2);
000b5a  20a2              MOVS     r0,#0xa2
000b5c  8028              STRH     r0,[r5,#0]
;;;1382   		LCD_WR_DATA(0x00);
000b5e  2000              MOVS     r0,#0
000b60  8028              STRH     r0,[r5,#0]
;;;1383   		LCD_WR_DATA(0xB3);
000b62  20b3              MOVS     r0,#0xb3
000b64  8028              STRH     r0,[r5,#0]
;;;1384   		LCD_WR_DATA(0x00);
000b66  2000              MOVS     r0,#0
000b68  8028              STRH     r0,[r5,#0]
;;;1385   		LCD_WR_DATA(0xBE);
000b6a  20be              MOVS     r0,#0xbe
000b6c  8028              STRH     r0,[r5,#0]
;;;1386   		LCD_WR_DATA(0x00);
000b6e  2000              MOVS     r0,#0
000b70  8028              STRH     r0,[r5,#0]
;;;1387   		LCD_WR_DATA(0xC4);
000b72  20c4              MOVS     r0,#0xc4
000b74  8028              STRH     r0,[r5,#0]
;;;1388   		LCD_WR_DATA(0x00);
000b76  2000              MOVS     r0,#0
000b78  8028              STRH     r0,[r5,#0]
;;;1389   		LCD_WR_DATA(0xCD);
000b7a  20cd              MOVS     r0,#0xcd
000b7c  8028              STRH     r0,[r5,#0]
;;;1390   		LCD_WR_DATA(0x00);
000b7e  2000              MOVS     r0,#0
000b80  8028              STRH     r0,[r5,#0]
;;;1391   		LCD_WR_DATA(0xD3);
000b82  20d3              MOVS     r0,#0xd3
000b84  8028              STRH     r0,[r5,#0]
;;;1392   		LCD_WR_DATA(0x00);
000b86  2000              MOVS     r0,#0
000b88  8028              STRH     r0,[r5,#0]
;;;1393   		LCD_WR_DATA(0xDC);
000b8a  20dc              MOVS     r0,#0xdc
000b8c  8028              STRH     r0,[r5,#0]
;;;1394   		LCD_WR_DATA(0x00);
000b8e  2000              MOVS     r0,#0
000b90  8028              STRH     r0,[r5,#0]
;;;1395   		LCD_WR_DATA(0xF3);
000b92  20f3              MOVS     r0,#0xf3
000b94  8028              STRH     r0,[r5,#0]
;;;1396   		LCD_WR_DATA(0x00);
000b96  2000              MOVS     r0,#0
000b98  8028              STRH     r0,[r5,#0]
;;;1397   
;;;1398   		LCD_WR_REG(0xE6);
000b9a  20e6              MOVS     r0,#0xe6
000b9c  8020              STRH     r0,[r4,#0]
;;;1399   		LCD_WR_DATA(0x11);
000b9e  2011              MOVS     r0,#0x11
000ba0  8028              STRH     r0,[r5,#0]
;;;1400   		LCD_WR_DATA(0x00);
000ba2  2000              MOVS     r0,#0
000ba4  8028              STRH     r0,[r5,#0]
;;;1401   		LCD_WR_DATA(0x34);
000ba6  2034              MOVS     r0,#0x34
000ba8  8028              STRH     r0,[r5,#0]
;;;1402   		LCD_WR_DATA(0x00);
000baa  2000              MOVS     r0,#0
000bac  8028              STRH     r0,[r5,#0]
;;;1403   		LCD_WR_DATA(0x56);
000bae  2056              MOVS     r0,#0x56
000bb0  8028              STRH     r0,[r5,#0]
;;;1404   		LCD_WR_DATA(0x00);
000bb2  2000              MOVS     r0,#0
000bb4  8028              STRH     r0,[r5,#0]
;;;1405   		LCD_WR_DATA(0x76);
000bb6  2076              MOVS     r0,#0x76
000bb8  8028              STRH     r0,[r5,#0]
;;;1406   		LCD_WR_DATA(0x00);
000bba  2000              MOVS     r0,#0
000bbc  8028              STRH     r0,[r5,#0]
;;;1407   		LCD_WR_DATA(0x77);
000bbe  2077              MOVS     r0,#0x77
000bc0  8028              STRH     r0,[r5,#0]
;;;1408   		LCD_WR_DATA(0x00);
000bc2  2000              MOVS     r0,#0
000bc4  8028              STRH     r0,[r5,#0]
;;;1409   		LCD_WR_DATA(0x66);
000bc6  2066              MOVS     r0,#0x66
000bc8  8028              STRH     r0,[r5,#0]
;;;1410   		LCD_WR_DATA(0x00);
000bca  2000              MOVS     r0,#0
000bcc  8028              STRH     r0,[r5,#0]
;;;1411   		LCD_WR_DATA(0x88);
000bce  2088              MOVS     r0,#0x88
000bd0  8028              STRH     r0,[r5,#0]
;;;1412   		LCD_WR_DATA(0x00);
000bd2  2000              MOVS     r0,#0
000bd4  8028              STRH     r0,[r5,#0]
;;;1413   		LCD_WR_DATA(0x99);
000bd6  2099              MOVS     r0,#0x99
000bd8  8028              STRH     r0,[r5,#0]
;;;1414   		LCD_WR_DATA(0x00);
000bda  2000              MOVS     r0,#0
000bdc  8028              STRH     r0,[r5,#0]
;;;1415   		LCD_WR_DATA(0xBB);
000bde  20bb              MOVS     r0,#0xbb
000be0  8028              STRH     r0,[r5,#0]
;;;1416   		LCD_WR_DATA(0x00);
000be2  2000              MOVS     r0,#0
000be4  8028              STRH     r0,[r5,#0]
;;;1417   		LCD_WR_DATA(0x99);
000be6  2099              MOVS     r0,#0x99
000be8  8028              STRH     r0,[r5,#0]
;;;1418   		LCD_WR_DATA(0x00);
000bea  2000              MOVS     r0,#0
000bec  8028              STRH     r0,[r5,#0]
;;;1419   		LCD_WR_DATA(0x66);
000bee  2066              MOVS     r0,#0x66
000bf0  8028              STRH     r0,[r5,#0]
;;;1420   		LCD_WR_DATA(0x00);
000bf2  2000              MOVS     r0,#0
000bf4  8028              STRH     r0,[r5,#0]
;;;1421   		LCD_WR_DATA(0x55);
000bf6  2055              MOVS     r0,#0x55
000bf8  8028              STRH     r0,[r5,#0]
;;;1422   		LCD_WR_DATA(0x00);
000bfa  2000              MOVS     r0,#0
000bfc  8028              STRH     r0,[r5,#0]
;;;1423   		LCD_WR_DATA(0x55);
000bfe  2055              MOVS     r0,#0x55
000c00  8028              STRH     r0,[r5,#0]
;;;1424   		LCD_WR_DATA(0x00);
000c02  2000              MOVS     r0,#0
000c04  8028              STRH     r0,[r5,#0]
;;;1425   		LCD_WR_DATA(0x45);
000c06  2045              MOVS     r0,#0x45
000c08  8028              STRH     r0,[r5,#0]
;;;1426   		LCD_WR_DATA(0x00);
000c0a  2000              MOVS     r0,#0
000c0c  8028              STRH     r0,[r5,#0]
;;;1427   		LCD_WR_DATA(0x43);
000c0e  2043              MOVS     r0,#0x43
000c10  8028              STRH     r0,[r5,#0]
;;;1428   		LCD_WR_DATA(0x00);
000c12  2000              MOVS     r0,#0
000c14  8028              STRH     r0,[r5,#0]
;;;1429   		LCD_WR_DATA(0x44);
000c16  2044              MOVS     r0,#0x44
000c18  8028              STRH     r0,[r5,#0]
;;;1430   		LCD_WR_DATA(0x00);
000c1a  2000              MOVS     r0,#0
000c1c  8028              STRH     r0,[r5,#0]
;;;1431   
;;;1432   		LCD_WR_REG(0xE7);
000c1e  20e7              MOVS     r0,#0xe7
000c20  8020              STRH     r0,[r4,#0]
;;;1433   		LCD_WR_DATA(0x32);
000c22  2032              MOVS     r0,#0x32
000c24  8028              STRH     r0,[r5,#0]
;;;1434   		LCD_WR_DATA(0x00);
000c26  2000              MOVS     r0,#0
000c28  8028              STRH     r0,[r5,#0]
;;;1435   		LCD_WR_DATA(0x55);
000c2a  2055              MOVS     r0,#0x55
000c2c  8028              STRH     r0,[r5,#0]
;;;1436   		LCD_WR_DATA(0x00);
000c2e  2000              MOVS     r0,#0
000c30  8028              STRH     r0,[r5,#0]
;;;1437   		LCD_WR_DATA(0x76);
000c32  2076              MOVS     r0,#0x76
000c34  8028              STRH     r0,[r5,#0]
;;;1438   		LCD_WR_DATA(0x00);
000c36  2000              MOVS     r0,#0
000c38  8028              STRH     r0,[r5,#0]
;;;1439   		LCD_WR_DATA(0x66);
000c3a  2066              MOVS     r0,#0x66
000c3c  8028              STRH     r0,[r5,#0]
;;;1440   		LCD_WR_DATA(0x00);
000c3e  2000              MOVS     r0,#0
000c40  8028              STRH     r0,[r5,#0]
;;;1441   		LCD_WR_DATA(0x67);
000c42  2067              MOVS     r0,#0x67
000c44  8028              STRH     r0,[r5,#0]
;;;1442   		LCD_WR_DATA(0x00);
000c46  2000              MOVS     r0,#0
000c48  8028              STRH     r0,[r5,#0]
;;;1443   		LCD_WR_DATA(0x67);
000c4a  2067              MOVS     r0,#0x67
000c4c  8028              STRH     r0,[r5,#0]
;;;1444   		LCD_WR_DATA(0x00);
000c4e  2000              MOVS     r0,#0
000c50  8028              STRH     r0,[r5,#0]
;;;1445   		LCD_WR_DATA(0x87);
000c52  2087              MOVS     r0,#0x87
000c54  8028              STRH     r0,[r5,#0]
;;;1446   		LCD_WR_DATA(0x00);
000c56  2000              MOVS     r0,#0
000c58  8028              STRH     r0,[r5,#0]
;;;1447   		LCD_WR_DATA(0x99);
000c5a  2099              MOVS     r0,#0x99
000c5c  8028              STRH     r0,[r5,#0]
;;;1448   		LCD_WR_DATA(0x00);
000c5e  2000              MOVS     r0,#0
000c60  8028              STRH     r0,[r5,#0]
;;;1449   		LCD_WR_DATA(0xBB);
000c62  20bb              MOVS     r0,#0xbb
000c64  8028              STRH     r0,[r5,#0]
;;;1450   		LCD_WR_DATA(0x00);
000c66  2000              MOVS     r0,#0
000c68  8028              STRH     r0,[r5,#0]
;;;1451   		LCD_WR_DATA(0x99);
000c6a  2099              MOVS     r0,#0x99
000c6c  8028              STRH     r0,[r5,#0]
;;;1452   		LCD_WR_DATA(0x00);
000c6e  2000              MOVS     r0,#0
000c70  8028              STRH     r0,[r5,#0]
;;;1453   		LCD_WR_DATA(0x77);
000c72  2077              MOVS     r0,#0x77
000c74  8028              STRH     r0,[r5,#0]
;;;1454   		LCD_WR_DATA(0x00);
000c76  2000              MOVS     r0,#0
000c78  8028              STRH     r0,[r5,#0]
;;;1455   		LCD_WR_DATA(0x44);
000c7a  2044              MOVS     r0,#0x44
000c7c  8028              STRH     r0,[r5,#0]
;;;1456   		LCD_WR_DATA(0x00);
000c7e  2000              MOVS     r0,#0
000c80  8028              STRH     r0,[r5,#0]
;;;1457   		LCD_WR_DATA(0x56);
000c82  2056              MOVS     r0,#0x56
000c84  8028              STRH     r0,[r5,#0]
;;;1458   		LCD_WR_DATA(0x00);
000c86  2000              MOVS     r0,#0
000c88  8028              STRH     r0,[r5,#0]
;;;1459   		LCD_WR_DATA(0x23); 
000c8a  2023              MOVS     r0,#0x23
000c8c  8028              STRH     r0,[r5,#0]
;;;1460   		LCD_WR_DATA(0x00);
000c8e  2000              MOVS     r0,#0
000c90  8028              STRH     r0,[r5,#0]
;;;1461   		LCD_WR_DATA(0x33);
000c92  2033              MOVS     r0,#0x33
000c94  8028              STRH     r0,[r5,#0]
;;;1462   		LCD_WR_DATA(0x00);
000c96  2000              MOVS     r0,#0
000c98  8028              STRH     r0,[r5,#0]
;;;1463   		LCD_WR_DATA(0x45);
000c9a  2045              MOVS     r0,#0x45
000c9c  8028              STRH     r0,[r5,#0]
;;;1464   		LCD_WR_DATA(0x00);
000c9e  2000              MOVS     r0,#0
000ca0  8028              STRH     r0,[r5,#0]
;;;1465   
;;;1466   		LCD_WR_REG(0xE8);
000ca2  20e8              MOVS     r0,#0xe8
000ca4  8020              STRH     r0,[r4,#0]
;;;1467   		LCD_WR_DATA(0x00);
000ca6  2000              MOVS     r0,#0
000ca8  8028              STRH     r0,[r5,#0]
000caa  8028              STRH     r0,[r5,#0]
;;;1468   		LCD_WR_DATA(0x00);
;;;1469   		LCD_WR_DATA(0x99);
000cac  2099              MOVS     r0,#0x99
000cae  8028              STRH     r0,[r5,#0]
;;;1470   		LCD_WR_DATA(0x00);
000cb0  2000              MOVS     r0,#0
000cb2  8028              STRH     r0,[r5,#0]
;;;1471   		LCD_WR_DATA(0x87);
000cb4  2087              MOVS     r0,#0x87
000cb6  8028              STRH     r0,[r5,#0]
;;;1472   		LCD_WR_DATA(0x00);
000cb8  2000              MOVS     r0,#0
000cba  8028              STRH     r0,[r5,#0]
;;;1473   		LCD_WR_DATA(0x88);
000cbc  2088              MOVS     r0,#0x88
000cbe  8028              STRH     r0,[r5,#0]
;;;1474   		LCD_WR_DATA(0x00);
000cc0  2000              MOVS     r0,#0
000cc2  8028              STRH     r0,[r5,#0]
;;;1475   		LCD_WR_DATA(0x77);
000cc4  2077              MOVS     r0,#0x77
000cc6  8028              STRH     r0,[r5,#0]
;;;1476   		LCD_WR_DATA(0x00);
000cc8  2000              MOVS     r0,#0
000cca  8028              STRH     r0,[r5,#0]
;;;1477   		LCD_WR_DATA(0x66);
000ccc  2066              MOVS     r0,#0x66
000cce  8028              STRH     r0,[r5,#0]
;;;1478   		LCD_WR_DATA(0x00);
000cd0  2000              MOVS     r0,#0
000cd2  8028              STRH     r0,[r5,#0]
;;;1479   		LCD_WR_DATA(0x88);
000cd4  2088              MOVS     r0,#0x88
000cd6  8028              STRH     r0,[r5,#0]
;;;1480   		LCD_WR_DATA(0x00);
000cd8  2000              MOVS     r0,#0
000cda  8028              STRH     r0,[r5,#0]
;;;1481   		LCD_WR_DATA(0xAA);
000cdc  20aa              MOVS     r0,#0xaa
000cde  8028              STRH     r0,[r5,#0]
;;;1482   		LCD_WR_DATA(0x00);
000ce0  2000              MOVS     r0,#0
000ce2  8028              STRH     r0,[r5,#0]
;;;1483   		LCD_WR_DATA(0xBB);
000ce4  20bb              MOVS     r0,#0xbb
000ce6  8028              STRH     r0,[r5,#0]
;;;1484   		LCD_WR_DATA(0x00);
000ce8  2000              MOVS     r0,#0
000cea  8028              STRH     r0,[r5,#0]
;;;1485   		LCD_WR_DATA(0x99);
000cec  2099              MOVS     r0,#0x99
000cee  8028              STRH     r0,[r5,#0]
;;;1486   		LCD_WR_DATA(0x00);
000cf0  2000              MOVS     r0,#0
000cf2  8028              STRH     r0,[r5,#0]
;;;1487   		LCD_WR_DATA(0x66);
000cf4  2066              MOVS     r0,#0x66
000cf6  8028              STRH     r0,[r5,#0]
;;;1488   		LCD_WR_DATA(0x00);
000cf8  2000              MOVS     r0,#0
000cfa  8028              STRH     r0,[r5,#0]
;;;1489   		LCD_WR_DATA(0x55);
000cfc  2055              MOVS     r0,#0x55
000cfe  8028              STRH     r0,[r5,#0]
;;;1490   		LCD_WR_DATA(0x00);
000d00  2000              MOVS     r0,#0
000d02  8028              STRH     r0,[r5,#0]
;;;1491   		LCD_WR_DATA(0x55);
000d04  2055              MOVS     r0,#0x55
000d06  8028              STRH     r0,[r5,#0]
;;;1492   		LCD_WR_DATA(0x00);
000d08  2000              MOVS     r0,#0
000d0a  8028              STRH     r0,[r5,#0]
;;;1493   		LCD_WR_DATA(0x44);
000d0c  2044              MOVS     r0,#0x44
000d0e  8028              STRH     r0,[r5,#0]
;;;1494   		LCD_WR_DATA(0x00);
000d10  2000              MOVS     r0,#0
000d12  8028              STRH     r0,[r5,#0]
;;;1495   		LCD_WR_DATA(0x44);
000d14  2044              MOVS     r0,#0x44
000d16  8028              STRH     r0,[r5,#0]
;;;1496   		LCD_WR_DATA(0x00);
000d18  2000              MOVS     r0,#0
000d1a  8028              STRH     r0,[r5,#0]
;;;1497   		LCD_WR_DATA(0x55);
000d1c  2055              MOVS     r0,#0x55
000d1e  8028              STRH     r0,[r5,#0]
;;;1498   		LCD_WR_DATA(0x00);
000d20  2000              MOVS     r0,#0
000d22  8028              STRH     r0,[r5,#0]
;;;1499   
;;;1500   		LCD_WR_REG(0xE9);
000d24  20e9              MOVS     r0,#0xe9
000d26  8020              STRH     r0,[r4,#0]
;;;1501   		LCD_WR_DATA(0xAA);
000d28  20aa              MOVS     r0,#0xaa
000d2a  8028              STRH     r0,[r5,#0]
;;;1502   		LCD_WR_DATA(0x00);
000d2c  2000              MOVS     r0,#0
000d2e  8028              STRH     r0,[r5,#0]
000d30  8028              STRH     r0,[r5,#0]
000d32  8028              STRH     r0,[r5,#0]
000d34  8020              STRH     r0,[r4,#0]
;;;1503   		LCD_WR_DATA(0x00);
;;;1504   		LCD_WR_DATA(0x00);
;;;1505   
;;;1506   		LCD_WR_REG(0x00);
;;;1507   		LCD_WR_DATA(0xAA);
000d36  20aa              MOVS     r0,#0xaa
000d38  8028              STRH     r0,[r5,#0]
;;;1508   
;;;1509   		LCD_WR_REG(0xCF);
000d3a  20cf              MOVS     r0,#0xcf
000d3c  8020              STRH     r0,[r4,#0]
;;;1510   		LCD_WR_DATA(0x00);
000d3e  2000              MOVS     r0,#0
000d40  8028              STRH     r0,[r5,#0]
000d42  8028              STRH     r0,[r5,#0]
000d44  8028              STRH     r0,[r5,#0]
000d46  8028              STRH     r0,[r5,#0]
000d48  8028              STRH     r0,[r5,#0]
000d4a  8028              STRH     r0,[r5,#0]
000d4c  8028              STRH     r0,[r5,#0]
000d4e  8028              STRH     r0,[r5,#0]
000d50  8028              STRH     r0,[r5,#0]
000d52  8028              STRH     r0,[r5,#0]
000d54  8028              STRH     r0,[r5,#0]
000d56  8028              STRH     r0,[r5,#0]
000d58  8028              STRH     r0,[r5,#0]
000d5a  8028              STRH     r0,[r5,#0]
000d5c  8028              STRH     r0,[r5,#0]
000d5e  8028              STRH     r0,[r5,#0]
000d60  8028              STRH     r0,[r5,#0]
;;;1511   		LCD_WR_DATA(0x00);
;;;1512   		LCD_WR_DATA(0x00);
;;;1513   		LCD_WR_DATA(0x00);
;;;1514   		LCD_WR_DATA(0x00);
;;;1515   		LCD_WR_DATA(0x00);
;;;1516   		LCD_WR_DATA(0x00);
;;;1517   		LCD_WR_DATA(0x00);
;;;1518   		LCD_WR_DATA(0x00);
;;;1519   		LCD_WR_DATA(0x00);
;;;1520   		LCD_WR_DATA(0x00);
;;;1521   		LCD_WR_DATA(0x00);
;;;1522   		LCD_WR_DATA(0x00);
;;;1523   		LCD_WR_DATA(0x00);
;;;1524   		LCD_WR_DATA(0x00);
;;;1525   		LCD_WR_DATA(0x00);
;;;1526   		LCD_WR_DATA(0x00);
;;;1527   
;;;1528   		LCD_WR_REG(0xF0);
000d62  20f0              MOVS     r0,#0xf0
000d64  8020              STRH     r0,[r4,#0]
;;;1529   		LCD_WR_DATA(0x00);
000d66  2000              MOVS     r0,#0
000d68  8028              STRH     r0,[r5,#0]
;;;1530   		LCD_WR_DATA(0x50);
000d6a  2050              MOVS     r0,#0x50
000d6c  8028              STRH     r0,[r5,#0]
;;;1531   		LCD_WR_DATA(0x00);
000d6e  2000              MOVS     r0,#0
000d70  8028              STRH     r0,[r5,#0]
000d72  e000              B        |L13.3446|
                  |L13.3444|
000d74  e02c              B        |L13.3536|
                  |L13.3446|
000d76  8028              STRH     r0,[r5,#0]
000d78  8028              STRH     r0,[r5,#0]
;;;1532   		LCD_WR_DATA(0x00);
;;;1533   		LCD_WR_DATA(0x00);
;;;1534   
;;;1535   		LCD_WR_REG(0xF3);
000d7a  20f3              MOVS     r0,#0xf3
000d7c  8020              STRH     r0,[r4,#0]
;;;1536   		LCD_WR_DATA(0x00);
000d7e  2000              MOVS     r0,#0
000d80  8028              STRH     r0,[r5,#0]
;;;1537   
;;;1538   		LCD_WR_REG(0xF9);
000d82  20f9              MOVS     r0,#0xf9
000d84  8020              STRH     r0,[r4,#0]
;;;1539   		LCD_WR_DATA(0x06);
000d86  2006              MOVS     r0,#6
000d88  8028              STRH     r0,[r5,#0]
;;;1540   		LCD_WR_DATA(0x10);
000d8a  2010              MOVS     r0,#0x10
000d8c  8028              STRH     r0,[r5,#0]
;;;1541   		LCD_WR_DATA(0x29);
000d8e  2029              MOVS     r0,#0x29
000d90  8028              STRH     r0,[r5,#0]
;;;1542   		LCD_WR_DATA(0x00);
000d92  2000              MOVS     r0,#0
000d94  8028              STRH     r0,[r5,#0]
;;;1543   
;;;1544   		LCD_WR_REG(0x3A);
000d96  203a              MOVS     r0,#0x3a
000d98  8020              STRH     r0,[r4,#0]
;;;1545   		LCD_WR_DATA(0x55);	//66
000d9a  2055              MOVS     r0,#0x55
000d9c  8028              STRH     r0,[r5,#0]
;;;1546   
;;;1547   		LCD_WR_REG(0x11);
000d9e  2011              MOVS     r0,#0x11
000da0  8020              STRH     r0,[r4,#0]
;;;1548   		delay_ms(100);
000da2  2064              MOVS     r0,#0x64
000da4  f7fffffe          BL       delay_ms
;;;1549   		LCD_WR_REG(0x29);
000da8  2029              MOVS     r0,#0x29
000daa  8020              STRH     r0,[r4,#0]
;;;1550   		LCD_WR_REG(0x35);
000dac  2035              MOVS     r0,#0x35
000dae  8020              STRH     r0,[r4,#0]
;;;1551   		LCD_WR_DATA(0x00);
000db0  2000              MOVS     r0,#0
000db2  8028              STRH     r0,[r5,#0]
;;;1552   
;;;1553   		LCD_WR_REG(0x51);
000db4  2051              MOVS     r0,#0x51
000db6  8020              STRH     r0,[r4,#0]
;;;1554   		LCD_WR_DATA(0xFF);
000db8  20ff              MOVS     r0,#0xff
000dba  8028              STRH     r0,[r5,#0]
;;;1555   		LCD_WR_REG(0x53);
000dbc  2053              MOVS     r0,#0x53
000dbe  8020              STRH     r0,[r4,#0]
;;;1556   		LCD_WR_DATA(0x2C);
000dc0  202c              MOVS     r0,#0x2c
000dc2  8028              STRH     r0,[r5,#0]
;;;1557   		LCD_WR_REG(0x55);
000dc4  2055              MOVS     r0,#0x55
000dc6  8020              STRH     r0,[r4,#0]
;;;1558   		LCD_WR_DATA(0x82);
000dc8  2082              MOVS     r0,#0x82
000dca  8028              STRH     r0,[r5,#0]
;;;1559   		LCD_WR_REG(0x2c);
000dcc  202c              MOVS     r0,#0x2c
000dce  e3fc              B        |L13.5578|
                  |L13.3536|
;;;1560   	}else if(lcddev.id==0x5510)
000dd0  42b8              CMP      r0,r7
000dd2  d17d              BNE      |L13.3792|
;;;1561   	{
;;;1562   		LCD_WriteReg(0xF000,0x55);
000dd4  f44f4370          MOV      r3,#0xf000
000dd8  2155              MOVS     r1,#0x55
000dda  4618              MOV      r0,r3
000ddc  f7fffffe          BL       LCD_WriteReg
;;;1563   		LCD_WriteReg(0xF001,0xAA);
000de0  f24f0501          MOV      r5,#0xf001
000de4  21aa              MOVS     r1,#0xaa
000de6  4628              MOV      r0,r5
000de8  f7fffffe          BL       LCD_WriteReg
;;;1564   		LCD_WriteReg(0xF002,0x52);
000dec  1c6e              ADDS     r6,r5,#1
000dee  2152              MOVS     r1,#0x52
000df0  4630              MOV      r0,r6
000df2  f7fffffe          BL       LCD_WriteReg
;;;1565   		LCD_WriteReg(0xF003,0x08);
000df6  1caf              ADDS     r7,r5,#2
000df8  2108              MOVS     r1,#8
000dfa  4638              MOV      r0,r7
000dfc  f7fffffe          BL       LCD_WriteReg
;;;1566   		LCD_WriteReg(0xF004,0x01);
000e00  f24f0904          MOV      r9,#0xf004
000e04  2101              MOVS     r1,#1
000e06  4648              MOV      r0,r9
000e08  f7fffffe          BL       LCD_WriteReg
;;;1567   		//AVDD Set AVDD 5.2V
;;;1568   		LCD_WriteReg(0xB000,0x0D);
000e0c  210d              MOVS     r1,#0xd
000e0e  f44f4030          MOV      r0,#0xb000
000e12  f7fffffe          BL       LCD_WriteReg
;;;1569   		LCD_WriteReg(0xB001,0x0D);
000e16  210d              MOVS     r1,#0xd
000e18  f24b0001          MOV      r0,#0xb001
000e1c  f7fffffe          BL       LCD_WriteReg
;;;1570   		LCD_WriteReg(0xB002,0x0D);
000e20  210d              MOVS     r1,#0xd
000e22  f24b0002          MOV      r0,#0xb002
000e26  f7fffffe          BL       LCD_WriteReg
;;;1571   		//AVDD ratio
;;;1572   		LCD_WriteReg(0xB600,0x34);
000e2a  f44f4a36          MOV      r10,#0xb600
000e2e  2134              MOVS     r1,#0x34
000e30  4650              MOV      r0,r10
000e32  f7fffffe          BL       LCD_WriteReg
;;;1573   		LCD_WriteReg(0xB601,0x34);
000e36  2134              MOVS     r1,#0x34
000e38  f24b6001          MOV      r0,#0xb601
000e3c  f7fffffe          BL       LCD_WriteReg
;;;1574   		LCD_WriteReg(0xB602,0x34);
000e40  2134              MOVS     r1,#0x34
000e42  f24b6002          MOV      r0,#0xb602
000e46  f7fffffe          BL       LCD_WriteReg
;;;1575   		//AVEE -5.2V
;;;1576   		LCD_WriteReg(0xB100,0x0D);
000e4a  f44f4b31          MOV      r11,#0xb100
000e4e  210d              MOVS     r1,#0xd
000e50  4658              MOV      r0,r11
000e52  f7fffffe          BL       LCD_WriteReg
;;;1577   		LCD_WriteReg(0xB101,0x0D);
000e56  210d              MOVS     r1,#0xd
000e58  f24b1001          MOV      r0,#0xb101
000e5c  f7fffffe          BL       LCD_WriteReg
;;;1578   		LCD_WriteReg(0xB102,0x0D);
000e60  210d              MOVS     r1,#0xd
000e62  f24b1002          MOV      r0,#0xb102
000e66  f7fffffe          BL       LCD_WriteReg
;;;1579   		//AVEE ratio
;;;1580   		LCD_WriteReg(0xB700,0x34);
000e6a  2134              MOVS     r1,#0x34
000e6c  f44f4037          MOV      r0,#0xb700
000e70  f7fffffe          BL       LCD_WriteReg
;;;1581   		LCD_WriteReg(0xB701,0x34);
000e74  2134              MOVS     r1,#0x34
000e76  f24b7001          MOV      r0,#0xb701
000e7a  f7fffffe          BL       LCD_WriteReg
;;;1582   		LCD_WriteReg(0xB702,0x34);
000e7e  2134              MOVS     r1,#0x34
000e80  f24b7002          MOV      r0,#0xb702
000e84  f7fffffe          BL       LCD_WriteReg
;;;1583   		//VCL -2.5V
;;;1584   		LCD_WriteReg(0xB200,0x00);
000e88  2100              MOVS     r1,#0
000e8a  f44f4032          MOV      r0,#0xb200
000e8e  f7fffffe          BL       LCD_WriteReg
;;;1585   		LCD_WriteReg(0xB201,0x00);
000e92  2100              MOVS     r1,#0
000e94  f24b2001          MOV      r0,#0xb201
000e98  f7fffffe          BL       LCD_WriteReg
;;;1586   		LCD_WriteReg(0xB202,0x00);
000e9c  2100              MOVS     r1,#0
000e9e  f24b2002          MOV      r0,#0xb202
000ea2  f7fffffe          BL       LCD_WriteReg
;;;1587   		//VCL ratio
;;;1588   		LCD_WriteReg(0xB800,0x24);
000ea6  2124              MOVS     r1,#0x24
000ea8  f44f4038          MOV      r0,#0xb800
000eac  f7fffffe          BL       LCD_WriteReg
;;;1589   		LCD_WriteReg(0xB801,0x24);
000eb0  2124              MOVS     r1,#0x24
000eb2  f64b0001          MOV      r0,#0xb801
000eb6  f7fffffe          BL       LCD_WriteReg
;;;1590   		LCD_WriteReg(0xB802,0x24);
000eba  2124              MOVS     r1,#0x24
000ebc  f64b0002          MOV      r0,#0xb802
000ec0  f7fffffe          BL       LCD_WriteReg
;;;1591   		//VGH 15V (Free pump)
;;;1592   		LCD_WriteReg(0xBF00,0x01);
000ec4  2101              MOVS     r1,#1
000ec6  f44f403f          MOV      r0,#0xbf00
000eca  f7fffffe          BL       LCD_WriteReg
;;;1593   		LCD_WriteReg(0xB300,0x0F);
000ece  e000              B        |L13.3794|
                  |L13.3792|
000ed0  e3fe              B        |L13.5840|
                  |L13.3794|
000ed2  210f              MOVS     r1,#0xf
000ed4  f44f4033          MOV      r0,#0xb300
000ed8  f7fffffe          BL       LCD_WriteReg
;;;1594   		LCD_WriteReg(0xB301,0x0F);
000edc  210f              MOVS     r1,#0xf
000ede  f24b3001          MOV      r0,#0xb301
000ee2  f7fffffe          BL       LCD_WriteReg
;;;1595   		LCD_WriteReg(0xB302,0x0F);
000ee6  210f              MOVS     r1,#0xf
000ee8  f24b3002          MOV      r0,#0xb302
000eec  f7fffffe          BL       LCD_WriteReg
;;;1596   		//VGH ratio
;;;1597   		LCD_WriteReg(0xB900,0x34);
000ef0  2134              MOVS     r1,#0x34
000ef2  f44f4039          MOV      r0,#0xb900
000ef6  f7fffffe          BL       LCD_WriteReg
;;;1598   		LCD_WriteReg(0xB901,0x34);
000efa  2134              MOVS     r1,#0x34
000efc  f64b1001          MOV      r0,#0xb901
000f00  f7fffffe          BL       LCD_WriteReg
;;;1599   		LCD_WriteReg(0xB902,0x34);
000f04  2134              MOVS     r1,#0x34
000f06  f64b1002          MOV      r0,#0xb902
000f0a  f7fffffe          BL       LCD_WriteReg
;;;1600   		//VGL_REG -10V
;;;1601   		LCD_WriteReg(0xB500,0x08);
000f0e  2108              MOVS     r1,#8
000f10  f44f4035          MOV      r0,#0xb500
000f14  f7fffffe          BL       LCD_WriteReg
;;;1602   		LCD_WriteReg(0xB501,0x08);
000f18  2108              MOVS     r1,#8
000f1a  f24b5001          MOV      r0,#0xb501
000f1e  f7fffffe          BL       LCD_WriteReg
;;;1603   		LCD_WriteReg(0xB502,0x08);
000f22  2108              MOVS     r1,#8
000f24  f24b5002          MOV      r0,#0xb502
000f28  f7fffffe          BL       LCD_WriteReg
;;;1604   		LCD_WriteReg(0xC200,0x03);
000f2c  2103              MOVS     r1,#3
000f2e  f44f4042          MOV      r0,#0xc200
000f32  f7fffffe          BL       LCD_WriteReg
;;;1605   		//VGLX ratio
;;;1606   		LCD_WriteReg(0xBA00,0x24);
000f36  2124              MOVS     r1,#0x24
000f38  f44f403a          MOV      r0,#0xba00
000f3c  f7fffffe          BL       LCD_WriteReg
;;;1607   		LCD_WriteReg(0xBA01,0x24);
000f40  2124              MOVS     r1,#0x24
000f42  f64b2001          MOV      r0,#0xba01
000f46  f7fffffe          BL       LCD_WriteReg
;;;1608   		LCD_WriteReg(0xBA02,0x24);
000f4a  2124              MOVS     r1,#0x24
000f4c  f64b2002          MOV      r0,#0xba02
000f50  f7fffffe          BL       LCD_WriteReg
;;;1609   		//VGMP/VGSP 4.5V/0V
;;;1610   		LCD_WriteReg(0xBC00,0x00);
000f54  2100              MOVS     r1,#0
000f56  f44f403c          MOV      r0,#0xbc00
000f5a  f7fffffe          BL       LCD_WriteReg
;;;1611   		LCD_WriteReg(0xBC01,0x78);
000f5e  2178              MOVS     r1,#0x78
000f60  f64b4001          MOV      r0,#0xbc01
000f64  f7fffffe          BL       LCD_WriteReg
;;;1612   		LCD_WriteReg(0xBC02,0x00);
000f68  2100              MOVS     r1,#0
000f6a  f64b4002          MOV      r0,#0xbc02
000f6e  f7fffffe          BL       LCD_WriteReg
;;;1613   		//VGMN/VGSN -4.5V/0V
;;;1614   		LCD_WriteReg(0xBD00,0x00);
000f72  2100              MOVS     r1,#0
000f74  f44f403d          MOV      r0,#0xbd00
000f78  f7fffffe          BL       LCD_WriteReg
;;;1615   		LCD_WriteReg(0xBD01,0x78);
000f7c  2178              MOVS     r1,#0x78
000f7e  f64b5001          MOV      r0,#0xbd01
000f82  f7fffffe          BL       LCD_WriteReg
;;;1616   		LCD_WriteReg(0xBD02,0x00);
000f86  2100              MOVS     r1,#0
000f88  f64b5002          MOV      r0,#0xbd02
000f8c  f7fffffe          BL       LCD_WriteReg
;;;1617   		//VCOM
;;;1618   		LCD_WriteReg(0xBE00,0x00);
000f90  2100              MOVS     r1,#0
000f92  f44f403e          MOV      r0,#0xbe00
000f96  f7fffffe          BL       LCD_WriteReg
;;;1619   		LCD_WriteReg(0xBE01,0x64);
000f9a  2164              MOVS     r1,#0x64
000f9c  f64b6001          MOV      r0,#0xbe01
000fa0  f7fffffe          BL       LCD_WriteReg
;;;1620   		//Gamma Setting
;;;1621   		LCD_WriteReg(0xD100,0x00);
000fa4  2100              MOVS     r1,#0
000fa6  f44f4051          MOV      r0,#0xd100
000faa  f7fffffe          BL       LCD_WriteReg
;;;1622   		LCD_WriteReg(0xD101,0x33);
000fae  2133              MOVS     r1,#0x33
000fb0  f24d1001          MOV      r0,#0xd101
000fb4  f7fffffe          BL       LCD_WriteReg
;;;1623   		LCD_WriteReg(0xD102,0x00);
000fb8  2100              MOVS     r1,#0
000fba  f24d1002          MOV      r0,#0xd102
000fbe  f7fffffe          BL       LCD_WriteReg
;;;1624   		LCD_WriteReg(0xD103,0x34);
000fc2  2134              MOVS     r1,#0x34
000fc4  f24d1003          MOV      r0,#0xd103
000fc8  f7fffffe          BL       LCD_WriteReg
;;;1625   		LCD_WriteReg(0xD104,0x00);
000fcc  2100              MOVS     r1,#0
000fce  f24d1004          MOV      r0,#0xd104
000fd2  f7fffffe          BL       LCD_WriteReg
;;;1626   		LCD_WriteReg(0xD105,0x3A);
000fd6  213a              MOVS     r1,#0x3a
000fd8  f24d1005          MOV      r0,#0xd105
000fdc  f7fffffe          BL       LCD_WriteReg
;;;1627   		LCD_WriteReg(0xD106,0x00);
000fe0  2100              MOVS     r1,#0
000fe2  f24d1006          MOV      r0,#0xd106
000fe6  f7fffffe          BL       LCD_WriteReg
;;;1628   		LCD_WriteReg(0xD107,0x4A);
000fea  214a              MOVS     r1,#0x4a
000fec  f24d1007          MOV      r0,#0xd107
000ff0  f7fffffe          BL       LCD_WriteReg
;;;1629   		LCD_WriteReg(0xD108,0x00);
000ff4  2100              MOVS     r1,#0
000ff6  f24d1008          MOV      r0,#0xd108
000ffa  f7fffffe          BL       LCD_WriteReg
;;;1630   		LCD_WriteReg(0xD109,0x5C);
000ffe  215c              MOVS     r1,#0x5c
001000  f24d1009          MOV      r0,#0xd109
001004  f7fffffe          BL       LCD_WriteReg
;;;1631   		LCD_WriteReg(0xD10A,0x00);
001008  2100              MOVS     r1,#0
00100a  f24d100a          MOV      r0,#0xd10a
00100e  f7fffffe          BL       LCD_WriteReg
;;;1632   		LCD_WriteReg(0xD10B,0x81);
001012  2181              MOVS     r1,#0x81
001014  f24d100b          MOV      r0,#0xd10b
001018  f7fffffe          BL       LCD_WriteReg
;;;1633   		LCD_WriteReg(0xD10C,0x00);
00101c  2100              MOVS     r1,#0
00101e  f24d100c          MOV      r0,#0xd10c
001022  f7fffffe          BL       LCD_WriteReg
;;;1634   		LCD_WriteReg(0xD10D,0xA6);
001026  21a6              MOVS     r1,#0xa6
001028  f24d100d          MOV      r0,#0xd10d
00102c  f7fffffe          BL       LCD_WriteReg
;;;1635   		LCD_WriteReg(0xD10E,0x00);
001030  2100              MOVS     r1,#0
001032  f24d100e          MOV      r0,#0xd10e
001036  f7fffffe          BL       LCD_WriteReg
;;;1636   		LCD_WriteReg(0xD10F,0xE5);
00103a  21e5              MOVS     r1,#0xe5
00103c  f24d100f          MOV      r0,#0xd10f
001040  f7fffffe          BL       LCD_WriteReg
;;;1637   		LCD_WriteReg(0xD110,0x01);
001044  2101              MOVS     r1,#1
001046  f24d1010          MOV      r0,#0xd110
00104a  f7fffffe          BL       LCD_WriteReg
;;;1638   		LCD_WriteReg(0xD111,0x13);
00104e  2113              MOVS     r1,#0x13
001050  f24d1011          MOV      r0,#0xd111
001054  f7fffffe          BL       LCD_WriteReg
;;;1639   		LCD_WriteReg(0xD112,0x01);
001058  2101              MOVS     r1,#1
00105a  f24d1012          MOV      r0,#0xd112
00105e  f7fffffe          BL       LCD_WriteReg
;;;1640   		LCD_WriteReg(0xD113,0x54);
001062  2154              MOVS     r1,#0x54
001064  f24d1013          MOV      r0,#0xd113
001068  f7fffffe          BL       LCD_WriteReg
;;;1641   		LCD_WriteReg(0xD114,0x01);
00106c  2101              MOVS     r1,#1
00106e  f24d1014          MOV      r0,#0xd114
001072  f7fffffe          BL       LCD_WriteReg
;;;1642   		LCD_WriteReg(0xD115,0x82);
001076  2182              MOVS     r1,#0x82
001078  f24d1015          MOV      r0,#0xd115
00107c  f7fffffe          BL       LCD_WriteReg
;;;1643   		LCD_WriteReg(0xD116,0x01);
001080  2101              MOVS     r1,#1
001082  f24d1016          MOV      r0,#0xd116
001086  f7fffffe          BL       LCD_WriteReg
;;;1644   		LCD_WriteReg(0xD117,0xCA);
00108a  21ca              MOVS     r1,#0xca
00108c  f24d1017          MOV      r0,#0xd117
001090  f7fffffe          BL       LCD_WriteReg
;;;1645   		LCD_WriteReg(0xD118,0x02);
001094  2102              MOVS     r1,#2
001096  f24d1018          MOV      r0,#0xd118
00109a  f7fffffe          BL       LCD_WriteReg
;;;1646   		LCD_WriteReg(0xD119,0x00);
00109e  2100              MOVS     r1,#0
0010a0  f24d1019          MOV      r0,#0xd119
0010a4  f7fffffe          BL       LCD_WriteReg
;;;1647   		LCD_WriteReg(0xD11A,0x02);
0010a8  2102              MOVS     r1,#2
0010aa  f24d101a          MOV      r0,#0xd11a
0010ae  f7fffffe          BL       LCD_WriteReg
;;;1648   		LCD_WriteReg(0xD11B,0x01);
0010b2  2101              MOVS     r1,#1
0010b4  f24d101b          MOV      r0,#0xd11b
0010b8  f7fffffe          BL       LCD_WriteReg
;;;1649   		LCD_WriteReg(0xD11C,0x02);
0010bc  2102              MOVS     r1,#2
0010be  f24d101c          MOV      r0,#0xd11c
0010c2  f7fffffe          BL       LCD_WriteReg
;;;1650   		LCD_WriteReg(0xD11D,0x34);
0010c6  2134              MOVS     r1,#0x34
0010c8  f24d101d          MOV      r0,#0xd11d
0010cc  f7fffffe          BL       LCD_WriteReg
;;;1651   		LCD_WriteReg(0xD11E,0x02);
0010d0  2102              MOVS     r1,#2
0010d2  f24d101e          MOV      r0,#0xd11e
0010d6  f7fffffe          BL       LCD_WriteReg
;;;1652   		LCD_WriteReg(0xD11F,0x67);
0010da  2167              MOVS     r1,#0x67
0010dc  f24d101f          MOV      r0,#0xd11f
0010e0  f7fffffe          BL       LCD_WriteReg
;;;1653   		LCD_WriteReg(0xD120,0x02);
0010e4  2102              MOVS     r1,#2
0010e6  f24d1020          MOV      r0,#0xd120
0010ea  f7fffffe          BL       LCD_WriteReg
;;;1654   		LCD_WriteReg(0xD121,0x84);
0010ee  2184              MOVS     r1,#0x84
0010f0  f24d1021          MOV      r0,#0xd121
0010f4  f7fffffe          BL       LCD_WriteReg
;;;1655   		LCD_WriteReg(0xD122,0x02);
0010f8  2102              MOVS     r1,#2
0010fa  f24d1022          MOV      r0,#0xd122
0010fe  f7fffffe          BL       LCD_WriteReg
;;;1656   		LCD_WriteReg(0xD123,0xA4);
001102  21a4              MOVS     r1,#0xa4
001104  f24d1023          MOV      r0,#0xd123
001108  f7fffffe          BL       LCD_WriteReg
;;;1657   		LCD_WriteReg(0xD124,0x02);
00110c  2102              MOVS     r1,#2
00110e  f24d1024          MOV      r0,#0xd124
001112  f7fffffe          BL       LCD_WriteReg
;;;1658   		LCD_WriteReg(0xD125,0xB7);
001116  21b7              MOVS     r1,#0xb7
001118  f24d1025          MOV      r0,#0xd125
00111c  f7fffffe          BL       LCD_WriteReg
;;;1659   		LCD_WriteReg(0xD126,0x02);
001120  2102              MOVS     r1,#2
001122  f24d1026          MOV      r0,#0xd126
001126  f7fffffe          BL       LCD_WriteReg
;;;1660   		LCD_WriteReg(0xD127,0xCF);
00112a  21cf              MOVS     r1,#0xcf
00112c  f24d1027          MOV      r0,#0xd127
001130  f7fffffe          BL       LCD_WriteReg
;;;1661   		LCD_WriteReg(0xD128,0x02);
001134  2102              MOVS     r1,#2
001136  f24d1028          MOV      r0,#0xd128
00113a  f7fffffe          BL       LCD_WriteReg
;;;1662   		LCD_WriteReg(0xD129,0xDE);
00113e  21de              MOVS     r1,#0xde
001140  f24d1029          MOV      r0,#0xd129
001144  f7fffffe          BL       LCD_WriteReg
;;;1663   		LCD_WriteReg(0xD12A,0x02);
001148  2102              MOVS     r1,#2
00114a  f24d102a          MOV      r0,#0xd12a
00114e  f7fffffe          BL       LCD_WriteReg
;;;1664   		LCD_WriteReg(0xD12B,0xF2);
001152  21f2              MOVS     r1,#0xf2
001154  f24d102b          MOV      r0,#0xd12b
001158  f7fffffe          BL       LCD_WriteReg
;;;1665   		LCD_WriteReg(0xD12C,0x02);
00115c  2102              MOVS     r1,#2
00115e  f24d102c          MOV      r0,#0xd12c
001162  f7fffffe          BL       LCD_WriteReg
;;;1666   		LCD_WriteReg(0xD12D,0xFE);
001166  21fe              MOVS     r1,#0xfe
001168  f24d102d          MOV      r0,#0xd12d
00116c  f7fffffe          BL       LCD_WriteReg
;;;1667   		LCD_WriteReg(0xD12E,0x03);
001170  2103              MOVS     r1,#3
001172  f24d102e          MOV      r0,#0xd12e
001176  f7fffffe          BL       LCD_WriteReg
;;;1668   		LCD_WriteReg(0xD12F,0x10);
00117a  2110              MOVS     r1,#0x10
00117c  f24d102f          MOV      r0,#0xd12f
001180  f7fffffe          BL       LCD_WriteReg
;;;1669   		LCD_WriteReg(0xD130,0x03);
001184  2103              MOVS     r1,#3
001186  f24d1030          MOV      r0,#0xd130
00118a  f7fffffe          BL       LCD_WriteReg
;;;1670   		LCD_WriteReg(0xD131,0x33);
00118e  2133              MOVS     r1,#0x33
001190  f24d1031          MOV      r0,#0xd131
001194  f7fffffe          BL       LCD_WriteReg
;;;1671   		LCD_WriteReg(0xD132,0x03);
001198  2103              MOVS     r1,#3
00119a  f24d1032          MOV      r0,#0xd132
00119e  f7fffffe          BL       LCD_WriteReg
;;;1672   		LCD_WriteReg(0xD133,0x6D);
0011a2  216d              MOVS     r1,#0x6d
0011a4  f24d1033          MOV      r0,#0xd133
0011a8  f7fffffe          BL       LCD_WriteReg
;;;1673   		LCD_WriteReg(0xD200,0x00);
0011ac  2100              MOVS     r1,#0
0011ae  f44f4052          MOV      r0,#0xd200
0011b2  f7fffffe          BL       LCD_WriteReg
;;;1674   		LCD_WriteReg(0xD201,0x33);
0011b6  2133              MOVS     r1,#0x33
0011b8  f24d2001          MOV      r0,#0xd201
0011bc  f7fffffe          BL       LCD_WriteReg
;;;1675   		LCD_WriteReg(0xD202,0x00);
0011c0  2100              MOVS     r1,#0
0011c2  f24d2002          MOV      r0,#0xd202
0011c6  f7fffffe          BL       LCD_WriteReg
;;;1676   		LCD_WriteReg(0xD203,0x34);
0011ca  2134              MOVS     r1,#0x34
0011cc  f24d2003          MOV      r0,#0xd203
0011d0  f7fffffe          BL       LCD_WriteReg
;;;1677   		LCD_WriteReg(0xD204,0x00);
0011d4  2100              MOVS     r1,#0
0011d6  f24d2004          MOV      r0,#0xd204
0011da  f7fffffe          BL       LCD_WriteReg
;;;1678   		LCD_WriteReg(0xD205,0x3A);
0011de  213a              MOVS     r1,#0x3a
0011e0  f24d2005          MOV      r0,#0xd205
0011e4  f7fffffe          BL       LCD_WriteReg
;;;1679   		LCD_WriteReg(0xD206,0x00);
0011e8  2100              MOVS     r1,#0
0011ea  f24d2006          MOV      r0,#0xd206
0011ee  f7fffffe          BL       LCD_WriteReg
;;;1680   		LCD_WriteReg(0xD207,0x4A);
0011f2  214a              MOVS     r1,#0x4a
0011f4  f24d2007          MOV      r0,#0xd207
0011f8  f7fffffe          BL       LCD_WriteReg
;;;1681   		LCD_WriteReg(0xD208,0x00);
0011fc  2100              MOVS     r1,#0
0011fe  f24d2008          MOV      r0,#0xd208
001202  f7fffffe          BL       LCD_WriteReg
;;;1682   		LCD_WriteReg(0xD209,0x5C);
001206  215c              MOVS     r1,#0x5c
001208  f24d2009          MOV      r0,#0xd209
00120c  f7fffffe          BL       LCD_WriteReg
;;;1683   		LCD_WriteReg(0xD20A,0x00);
001210  2100              MOVS     r1,#0
001212  f24d200a          MOV      r0,#0xd20a
001216  f7fffffe          BL       LCD_WriteReg
;;;1684   
;;;1685   		LCD_WriteReg(0xD20B,0x81);
00121a  2181              MOVS     r1,#0x81
00121c  f24d200b          MOV      r0,#0xd20b
001220  f7fffffe          BL       LCD_WriteReg
;;;1686   		LCD_WriteReg(0xD20C,0x00);
001224  2100              MOVS     r1,#0
001226  f24d200c          MOV      r0,#0xd20c
00122a  f7fffffe          BL       LCD_WriteReg
;;;1687   		LCD_WriteReg(0xD20D,0xA6);
00122e  21a6              MOVS     r1,#0xa6
001230  f24d200d          MOV      r0,#0xd20d
001234  f7fffffe          BL       LCD_WriteReg
;;;1688   		LCD_WriteReg(0xD20E,0x00);
001238  2100              MOVS     r1,#0
00123a  f24d200e          MOV      r0,#0xd20e
00123e  f7fffffe          BL       LCD_WriteReg
;;;1689   		LCD_WriteReg(0xD20F,0xE5);
001242  21e5              MOVS     r1,#0xe5
001244  f24d200f          MOV      r0,#0xd20f
001248  f7fffffe          BL       LCD_WriteReg
;;;1690   		LCD_WriteReg(0xD210,0x01);
00124c  2101              MOVS     r1,#1
00124e  f24d2010          MOV      r0,#0xd210
001252  f7fffffe          BL       LCD_WriteReg
;;;1691   		LCD_WriteReg(0xD211,0x13);
001256  2113              MOVS     r1,#0x13
001258  f24d2011          MOV      r0,#0xd211
00125c  f7fffffe          BL       LCD_WriteReg
;;;1692   		LCD_WriteReg(0xD212,0x01);
001260  2101              MOVS     r1,#1
001262  f24d2012          MOV      r0,#0xd212
001266  f7fffffe          BL       LCD_WriteReg
;;;1693   		LCD_WriteReg(0xD213,0x54);
00126a  2154              MOVS     r1,#0x54
00126c  f24d2013          MOV      r0,#0xd213
001270  f7fffffe          BL       LCD_WriteReg
;;;1694   		LCD_WriteReg(0xD214,0x01);
001274  2101              MOVS     r1,#1
001276  f24d2014          MOV      r0,#0xd214
00127a  f7fffffe          BL       LCD_WriteReg
;;;1695   		LCD_WriteReg(0xD215,0x82);
00127e  2182              MOVS     r1,#0x82
001280  f24d2015          MOV      r0,#0xd215
001284  f7fffffe          BL       LCD_WriteReg
;;;1696   		LCD_WriteReg(0xD216,0x01);
001288  2101              MOVS     r1,#1
00128a  f24d2016          MOV      r0,#0xd216
00128e  f7fffffe          BL       LCD_WriteReg
;;;1697   		LCD_WriteReg(0xD217,0xCA);
001292  21ca              MOVS     r1,#0xca
001294  f24d2017          MOV      r0,#0xd217
001298  f7fffffe          BL       LCD_WriteReg
;;;1698   		LCD_WriteReg(0xD218,0x02);
00129c  2102              MOVS     r1,#2
00129e  f24d2018          MOV      r0,#0xd218
0012a2  f7fffffe          BL       LCD_WriteReg
;;;1699   		LCD_WriteReg(0xD219,0x00);
0012a6  2100              MOVS     r1,#0
0012a8  f24d2019          MOV      r0,#0xd219
0012ac  f7fffffe          BL       LCD_WriteReg
;;;1700   		LCD_WriteReg(0xD21A,0x02);
0012b0  2102              MOVS     r1,#2
0012b2  f24d201a          MOV      r0,#0xd21a
0012b6  f7fffffe          BL       LCD_WriteReg
;;;1701   		LCD_WriteReg(0xD21B,0x01);
0012ba  2101              MOVS     r1,#1
0012bc  f24d201b          MOV      r0,#0xd21b
0012c0  f7fffffe          BL       LCD_WriteReg
;;;1702   		LCD_WriteReg(0xD21C,0x02);
0012c4  2102              MOVS     r1,#2
0012c6  f24d201c          MOV      r0,#0xd21c
0012ca  f7fffffe          BL       LCD_WriteReg
;;;1703   		LCD_WriteReg(0xD21D,0x34);
0012ce  2134              MOVS     r1,#0x34
0012d0  f24d201d          MOV      r0,#0xd21d
0012d4  f7fffffe          BL       LCD_WriteReg
;;;1704   		LCD_WriteReg(0xD21E,0x02);
0012d8  2102              MOVS     r1,#2
0012da  f24d201e          MOV      r0,#0xd21e
0012de  f7fffffe          BL       LCD_WriteReg
;;;1705   		LCD_WriteReg(0xD21F,0x67);
0012e2  2167              MOVS     r1,#0x67
0012e4  f24d201f          MOV      r0,#0xd21f
0012e8  f7fffffe          BL       LCD_WriteReg
;;;1706   		LCD_WriteReg(0xD220,0x02);
0012ec  2102              MOVS     r1,#2
0012ee  f24d2020          MOV      r0,#0xd220
0012f2  f7fffffe          BL       LCD_WriteReg
;;;1707   		LCD_WriteReg(0xD221,0x84);
0012f6  2184              MOVS     r1,#0x84
0012f8  f24d2021          MOV      r0,#0xd221
0012fc  f7fffffe          BL       LCD_WriteReg
;;;1708   		LCD_WriteReg(0xD222,0x02);
001300  2102              MOVS     r1,#2
001302  f24d2022          MOV      r0,#0xd222
001306  f7fffffe          BL       LCD_WriteReg
;;;1709   		LCD_WriteReg(0xD223,0xA4);
00130a  21a4              MOVS     r1,#0xa4
00130c  f24d2023          MOV      r0,#0xd223
001310  f7fffffe          BL       LCD_WriteReg
;;;1710   		LCD_WriteReg(0xD224,0x02);
001314  2102              MOVS     r1,#2
001316  f24d2024          MOV      r0,#0xd224
00131a  f7fffffe          BL       LCD_WriteReg
;;;1711   		LCD_WriteReg(0xD225,0xB7);
00131e  21b7              MOVS     r1,#0xb7
001320  f24d2025          MOV      r0,#0xd225
001324  f7fffffe          BL       LCD_WriteReg
;;;1712   		LCD_WriteReg(0xD226,0x02);
001328  2102              MOVS     r1,#2
00132a  f24d2026          MOV      r0,#0xd226
00132e  f7fffffe          BL       LCD_WriteReg
;;;1713   		LCD_WriteReg(0xD227,0xCF);
001332  21cf              MOVS     r1,#0xcf
001334  f24d2027          MOV      r0,#0xd227
001338  f7fffffe          BL       LCD_WriteReg
;;;1714   		LCD_WriteReg(0xD228,0x02);
00133c  2102              MOVS     r1,#2
00133e  f24d2028          MOV      r0,#0xd228
001342  f7fffffe          BL       LCD_WriteReg
;;;1715   		LCD_WriteReg(0xD229,0xDE);
001346  21de              MOVS     r1,#0xde
001348  f24d2029          MOV      r0,#0xd229
00134c  f7fffffe          BL       LCD_WriteReg
;;;1716   		LCD_WriteReg(0xD22A,0x02);
001350  2102              MOVS     r1,#2
001352  f24d202a          MOV      r0,#0xd22a
001356  f7fffffe          BL       LCD_WriteReg
;;;1717   		LCD_WriteReg(0xD22B,0xF2);
00135a  21f2              MOVS     r1,#0xf2
00135c  f24d202b          MOV      r0,#0xd22b
001360  f7fffffe          BL       LCD_WriteReg
;;;1718   		LCD_WriteReg(0xD22C,0x02);
001364  2102              MOVS     r1,#2
001366  f24d202c          MOV      r0,#0xd22c
00136a  f7fffffe          BL       LCD_WriteReg
;;;1719   		LCD_WriteReg(0xD22D,0xFE);
00136e  21fe              MOVS     r1,#0xfe
001370  f24d202d          MOV      r0,#0xd22d
001374  f7fffffe          BL       LCD_WriteReg
;;;1720   		LCD_WriteReg(0xD22E,0x03);
001378  2103              MOVS     r1,#3
00137a  f24d202e          MOV      r0,#0xd22e
00137e  f7fffffe          BL       LCD_WriteReg
;;;1721   		LCD_WriteReg(0xD22F,0x10);
001382  2110              MOVS     r1,#0x10
001384  f24d202f          MOV      r0,#0xd22f
001388  f7fffffe          BL       LCD_WriteReg
;;;1722   		LCD_WriteReg(0xD230,0x03);
00138c  2103              MOVS     r1,#3
00138e  f24d2030          MOV      r0,#0xd230
001392  f7fffffe          BL       LCD_WriteReg
;;;1723   		LCD_WriteReg(0xD231,0x33);
001396  2133              MOVS     r1,#0x33
001398  f24d2031          MOV      r0,#0xd231
00139c  f7fffffe          BL       LCD_WriteReg
;;;1724   		LCD_WriteReg(0xD232,0x03);
0013a0  2103              MOVS     r1,#3
0013a2  f24d2032          MOV      r0,#0xd232
0013a6  f7fffffe          BL       LCD_WriteReg
;;;1725   		LCD_WriteReg(0xD233,0x6D);
0013aa  216d              MOVS     r1,#0x6d
0013ac  f24d2033          MOV      r0,#0xd233
0013b0  f7fffffe          BL       LCD_WriteReg
;;;1726   		LCD_WriteReg(0xD300,0x00);
0013b4  2100              MOVS     r1,#0
0013b6  f44f4053          MOV      r0,#0xd300
0013ba  f7fffffe          BL       LCD_WriteReg
;;;1727   		LCD_WriteReg(0xD301,0x33);
0013be  2133              MOVS     r1,#0x33
0013c0  f24d3001          MOV      r0,#0xd301
0013c4  f7fffffe          BL       LCD_WriteReg
;;;1728   		LCD_WriteReg(0xD302,0x00);
0013c8  2100              MOVS     r1,#0
0013ca  f24d3002          MOV      r0,#0xd302
0013ce  f7fffffe          BL       LCD_WriteReg
;;;1729   		LCD_WriteReg(0xD303,0x34);
0013d2  2134              MOVS     r1,#0x34
0013d4  f24d3003          MOV      r0,#0xd303
0013d8  f7fffffe          BL       LCD_WriteReg
;;;1730   		LCD_WriteReg(0xD304,0x00);
0013dc  2100              MOVS     r1,#0
0013de  f24d3004          MOV      r0,#0xd304
0013e2  f7fffffe          BL       LCD_WriteReg
;;;1731   		LCD_WriteReg(0xD305,0x3A);
0013e6  213a              MOVS     r1,#0x3a
0013e8  f24d3005          MOV      r0,#0xd305
0013ec  f7fffffe          BL       LCD_WriteReg
;;;1732   		LCD_WriteReg(0xD306,0x00);
0013f0  2100              MOVS     r1,#0
0013f2  f24d3006          MOV      r0,#0xd306
0013f6  f7fffffe          BL       LCD_WriteReg
;;;1733   		LCD_WriteReg(0xD307,0x4A);
0013fa  214a              MOVS     r1,#0x4a
0013fc  f24d3007          MOV      r0,#0xd307
001400  f7fffffe          BL       LCD_WriteReg
;;;1734   		LCD_WriteReg(0xD308,0x00);
001404  2100              MOVS     r1,#0
001406  f24d3008          MOV      r0,#0xd308
00140a  f7fffffe          BL       LCD_WriteReg
;;;1735   		LCD_WriteReg(0xD309,0x5C);
00140e  215c              MOVS     r1,#0x5c
001410  f24d3009          MOV      r0,#0xd309
001414  f7fffffe          BL       LCD_WriteReg
;;;1736   		LCD_WriteReg(0xD30A,0x00);
001418  2100              MOVS     r1,#0
00141a  f24d300a          MOV      r0,#0xd30a
00141e  f7fffffe          BL       LCD_WriteReg
;;;1737   
;;;1738   		LCD_WriteReg(0xD30B,0x81);
001422  2181              MOVS     r1,#0x81
001424  f24d300b          MOV      r0,#0xd30b
001428  f7fffffe          BL       LCD_WriteReg
;;;1739   		LCD_WriteReg(0xD30C,0x00);
00142c  2100              MOVS     r1,#0
00142e  f24d300c          MOV      r0,#0xd30c
001432  f7fffffe          BL       LCD_WriteReg
;;;1740   		LCD_WriteReg(0xD30D,0xA6);
001436  21a6              MOVS     r1,#0xa6
001438  f24d300d          MOV      r0,#0xd30d
00143c  f7fffffe          BL       LCD_WriteReg
;;;1741   		LCD_WriteReg(0xD30E,0x00);
001440  2100              MOVS     r1,#0
001442  f24d300e          MOV      r0,#0xd30e
001446  f7fffffe          BL       LCD_WriteReg
;;;1742   		LCD_WriteReg(0xD30F,0xE5);
00144a  21e5              MOVS     r1,#0xe5
00144c  f24d300f          MOV      r0,#0xd30f
001450  f7fffffe          BL       LCD_WriteReg
;;;1743   		LCD_WriteReg(0xD310,0x01);
001454  2101              MOVS     r1,#1
001456  f24d3010          MOV      r0,#0xd310
00145a  f7fffffe          BL       LCD_WriteReg
;;;1744   		LCD_WriteReg(0xD311,0x13);
00145e  2113              MOVS     r1,#0x13
001460  f24d3011          MOV      r0,#0xd311
001464  f7fffffe          BL       LCD_WriteReg
;;;1745   		LCD_WriteReg(0xD312,0x01);
001468  2101              MOVS     r1,#1
00146a  f24d3012          MOV      r0,#0xd312
00146e  f7fffffe          BL       LCD_WriteReg
;;;1746   		LCD_WriteReg(0xD313,0x54);
001472  2154              MOVS     r1,#0x54
001474  f24d3013          MOV      r0,#0xd313
001478  f7fffffe          BL       LCD_WriteReg
;;;1747   		LCD_WriteReg(0xD314,0x01);
00147c  2101              MOVS     r1,#1
00147e  f24d3014          MOV      r0,#0xd314
001482  f7fffffe          BL       LCD_WriteReg
;;;1748   		LCD_WriteReg(0xD315,0x82);
001486  2182              MOVS     r1,#0x82
001488  f24d3015          MOV      r0,#0xd315
00148c  f7fffffe          BL       LCD_WriteReg
;;;1749   		LCD_WriteReg(0xD316,0x01);
001490  2101              MOVS     r1,#1
001492  f24d3016          MOV      r0,#0xd316
001496  f7fffffe          BL       LCD_WriteReg
;;;1750   		LCD_WriteReg(0xD317,0xCA);
00149a  21ca              MOVS     r1,#0xca
00149c  f24d3017          MOV      r0,#0xd317
0014a0  f7fffffe          BL       LCD_WriteReg
;;;1751   		LCD_WriteReg(0xD318,0x02);
0014a4  2102              MOVS     r1,#2
0014a6  f24d3018          MOV      r0,#0xd318
0014aa  f7fffffe          BL       LCD_WriteReg
;;;1752   		LCD_WriteReg(0xD319,0x00);
0014ae  2100              MOVS     r1,#0
0014b0  f24d3019          MOV      r0,#0xd319
0014b4  f7fffffe          BL       LCD_WriteReg
;;;1753   		LCD_WriteReg(0xD31A,0x02);
0014b8  2102              MOVS     r1,#2
0014ba  f24d301a          MOV      r0,#0xd31a
0014be  f7fffffe          BL       LCD_WriteReg
;;;1754   		LCD_WriteReg(0xD31B,0x01);
0014c2  2101              MOVS     r1,#1
0014c4  f24d301b          MOV      r0,#0xd31b
0014c8  f7fffffe          BL       LCD_WriteReg
;;;1755   		LCD_WriteReg(0xD31C,0x02);
0014cc  2102              MOVS     r1,#2
0014ce  f24d301c          MOV      r0,#0xd31c
0014d2  f7fffffe          BL       LCD_WriteReg
;;;1756   		LCD_WriteReg(0xD31D,0x34);
0014d6  2134              MOVS     r1,#0x34
0014d8  f24d301d          MOV      r0,#0xd31d
0014dc  f7fffffe          BL       LCD_WriteReg
;;;1757   		LCD_WriteReg(0xD31E,0x02);
0014e0  2102              MOVS     r1,#2
0014e2  f24d301e          MOV      r0,#0xd31e
0014e6  f7fffffe          BL       LCD_WriteReg
;;;1758   		LCD_WriteReg(0xD31F,0x67);
0014ea  2167              MOVS     r1,#0x67
0014ec  f24d301f          MOV      r0,#0xd31f
0014f0  f7fffffe          BL       LCD_WriteReg
;;;1759   		LCD_WriteReg(0xD320,0x02);
0014f4  2102              MOVS     r1,#2
0014f6  f24d3020          MOV      r0,#0xd320
0014fa  f7fffffe          BL       LCD_WriteReg
;;;1760   		LCD_WriteReg(0xD321,0x84);
0014fe  2184              MOVS     r1,#0x84
001500  f24d3021          MOV      r0,#0xd321
001504  f7fffffe          BL       LCD_WriteReg
;;;1761   		LCD_WriteReg(0xD322,0x02);
001508  2102              MOVS     r1,#2
00150a  f24d3022          MOV      r0,#0xd322
00150e  f7fffffe          BL       LCD_WriteReg
;;;1762   		LCD_WriteReg(0xD323,0xA4);
001512  21a4              MOVS     r1,#0xa4
001514  f24d3023          MOV      r0,#0xd323
001518  f7fffffe          BL       LCD_WriteReg
;;;1763   		LCD_WriteReg(0xD324,0x02);
00151c  2102              MOVS     r1,#2
00151e  f24d3024          MOV      r0,#0xd324
001522  f7fffffe          BL       LCD_WriteReg
;;;1764   		LCD_WriteReg(0xD325,0xB7);
001526  21b7              MOVS     r1,#0xb7
001528  f24d3025          MOV      r0,#0xd325
00152c  f7fffffe          BL       LCD_WriteReg
;;;1765   		LCD_WriteReg(0xD326,0x02);
001530  2102              MOVS     r1,#2
001532  f24d3026          MOV      r0,#0xd326
001536  f7fffffe          BL       LCD_WriteReg
;;;1766   		LCD_WriteReg(0xD327,0xCF);
00153a  21cf              MOVS     r1,#0xcf
00153c  f24d3027          MOV      r0,#0xd327
001540  f7fffffe          BL       LCD_WriteReg
;;;1767   		LCD_WriteReg(0xD328,0x02);
001544  2102              MOVS     r1,#2
001546  f24d3028          MOV      r0,#0xd328
00154a  f7fffffe          BL       LCD_WriteReg
;;;1768   		LCD_WriteReg(0xD329,0xDE);
00154e  21de              MOVS     r1,#0xde
001550  f24d3029          MOV      r0,#0xd329
001554  f7fffffe          BL       LCD_WriteReg
;;;1769   		LCD_WriteReg(0xD32A,0x02);
001558  2102              MOVS     r1,#2
00155a  f24d302a          MOV      r0,#0xd32a
00155e  f7fffffe          BL       LCD_WriteReg
;;;1770   		LCD_WriteReg(0xD32B,0xF2);
001562  21f2              MOVS     r1,#0xf2
001564  f24d302b          MOV      r0,#0xd32b
001568  f7fffffe          BL       LCD_WriteReg
;;;1771   		LCD_WriteReg(0xD32C,0x02);
00156c  2102              MOVS     r1,#2
00156e  f24d302c          MOV      r0,#0xd32c
001572  f7fffffe          BL       LCD_WriteReg
;;;1772   		LCD_WriteReg(0xD32D,0xFE);
001576  21fe              MOVS     r1,#0xfe
001578  f24d302d          MOV      r0,#0xd32d
00157c  f7fffffe          BL       LCD_WriteReg
;;;1773   		LCD_WriteReg(0xD32E,0x03);
001580  2103              MOVS     r1,#3
001582  f24d302e          MOV      r0,#0xd32e
001586  f7fffffe          BL       LCD_WriteReg
;;;1774   		LCD_WriteReg(0xD32F,0x10);
00158a  2110              MOVS     r1,#0x10
00158c  f24d302f          MOV      r0,#0xd32f
001590  f7fffffe          BL       LCD_WriteReg
;;;1775   		LCD_WriteReg(0xD330,0x03);
001594  2103              MOVS     r1,#3
001596  f24d3030          MOV      r0,#0xd330
00159a  f7fffffe          BL       LCD_WriteReg
;;;1776   		LCD_WriteReg(0xD331,0x33);
00159e  2133              MOVS     r1,#0x33
0015a0  f24d3031          MOV      r0,#0xd331
0015a4  f7fffffe          BL       LCD_WriteReg
;;;1777   		LCD_WriteReg(0xD332,0x03);
0015a8  2103              MOVS     r1,#3
0015aa  f24d3032          MOV      r0,#0xd332
0015ae  f7fffffe          BL       LCD_WriteReg
;;;1778   		LCD_WriteReg(0xD333,0x6D);
0015b2  216d              MOVS     r1,#0x6d
0015b4  f24d3033          MOV      r0,#0xd333
0015b8  f7fffffe          BL       LCD_WriteReg
;;;1779   		LCD_WriteReg(0xD400,0x00);
0015bc  2100              MOVS     r1,#0
0015be  f44f4054          MOV      r0,#0xd400
0015c2  f7fffffe          BL       LCD_WriteReg
;;;1780   		LCD_WriteReg(0xD401,0x33);
0015c6  2133              MOVS     r1,#0x33
0015c8  e000              B        |L13.5580|
                  |L13.5578|
0015ca  e380              B        |L13.7374|
                  |L13.5580|
0015cc  f24d4001          MOV      r0,#0xd401
0015d0  f7fffffe          BL       LCD_WriteReg
;;;1781   		LCD_WriteReg(0xD402,0x00);
0015d4  2100              MOVS     r1,#0
0015d6  f24d4002          MOV      r0,#0xd402
0015da  f7fffffe          BL       LCD_WriteReg
;;;1782   		LCD_WriteReg(0xD403,0x34);
0015de  2134              MOVS     r1,#0x34
0015e0  f24d4003          MOV      r0,#0xd403
0015e4  f7fffffe          BL       LCD_WriteReg
;;;1783   		LCD_WriteReg(0xD404,0x00);
0015e8  2100              MOVS     r1,#0
0015ea  f24d4004          MOV      r0,#0xd404
0015ee  f7fffffe          BL       LCD_WriteReg
;;;1784   		LCD_WriteReg(0xD405,0x3A);
0015f2  213a              MOVS     r1,#0x3a
0015f4  f24d4005          MOV      r0,#0xd405
0015f8  f7fffffe          BL       LCD_WriteReg
;;;1785   		LCD_WriteReg(0xD406,0x00);
0015fc  2100              MOVS     r1,#0
0015fe  f24d4006          MOV      r0,#0xd406
001602  f7fffffe          BL       LCD_WriteReg
;;;1786   		LCD_WriteReg(0xD407,0x4A);
001606  214a              MOVS     r1,#0x4a
001608  f24d4007          MOV      r0,#0xd407
00160c  f7fffffe          BL       LCD_WriteReg
;;;1787   		LCD_WriteReg(0xD408,0x00);
001610  2100              MOVS     r1,#0
001612  f24d4008          MOV      r0,#0xd408
001616  f7fffffe          BL       LCD_WriteReg
;;;1788   		LCD_WriteReg(0xD409,0x5C);
00161a  215c              MOVS     r1,#0x5c
00161c  f24d4009          MOV      r0,#0xd409
001620  f7fffffe          BL       LCD_WriteReg
;;;1789   		LCD_WriteReg(0xD40A,0x00);
001624  2100              MOVS     r1,#0
001626  f24d400a          MOV      r0,#0xd40a
00162a  f7fffffe          BL       LCD_WriteReg
;;;1790   		LCD_WriteReg(0xD40B,0x81);
00162e  2181              MOVS     r1,#0x81
001630  f24d400b          MOV      r0,#0xd40b
001634  f7fffffe          BL       LCD_WriteReg
;;;1791   
;;;1792   		LCD_WriteReg(0xD40C,0x00);
001638  2100              MOVS     r1,#0
00163a  f24d400c          MOV      r0,#0xd40c
00163e  f7fffffe          BL       LCD_WriteReg
;;;1793   		LCD_WriteReg(0xD40D,0xA6);
001642  21a6              MOVS     r1,#0xa6
001644  f24d400d          MOV      r0,#0xd40d
001648  f7fffffe          BL       LCD_WriteReg
;;;1794   		LCD_WriteReg(0xD40E,0x00);
00164c  2100              MOVS     r1,#0
00164e  f24d400e          MOV      r0,#0xd40e
001652  f7fffffe          BL       LCD_WriteReg
;;;1795   		LCD_WriteReg(0xD40F,0xE5);
001656  21e5              MOVS     r1,#0xe5
001658  f24d400f          MOV      r0,#0xd40f
00165c  f7fffffe          BL       LCD_WriteReg
;;;1796   		LCD_WriteReg(0xD410,0x01);
001660  2101              MOVS     r1,#1
001662  f24d4010          MOV      r0,#0xd410
001666  f7fffffe          BL       LCD_WriteReg
;;;1797   		LCD_WriteReg(0xD411,0x13);
00166a  2113              MOVS     r1,#0x13
00166c  f24d4011          MOV      r0,#0xd411
001670  f7fffffe          BL       LCD_WriteReg
;;;1798   		LCD_WriteReg(0xD412,0x01);
001674  2101              MOVS     r1,#1
001676  f24d4012          MOV      r0,#0xd412
00167a  f7fffffe          BL       LCD_WriteReg
;;;1799   		LCD_WriteReg(0xD413,0x54);
00167e  2154              MOVS     r1,#0x54
001680  f24d4013          MOV      r0,#0xd413
001684  f7fffffe          BL       LCD_WriteReg
;;;1800   		LCD_WriteReg(0xD414,0x01);
001688  2101              MOVS     r1,#1
00168a  f24d4014          MOV      r0,#0xd414
00168e  f7fffffe          BL       LCD_WriteReg
;;;1801   		LCD_WriteReg(0xD415,0x82);
001692  2182              MOVS     r1,#0x82
001694  f24d4015          MOV      r0,#0xd415
001698  f7fffffe          BL       LCD_WriteReg
;;;1802   		LCD_WriteReg(0xD416,0x01);
00169c  2101              MOVS     r1,#1
00169e  f24d4016          MOV      r0,#0xd416
0016a2  f7fffffe          BL       LCD_WriteReg
;;;1803   		LCD_WriteReg(0xD417,0xCA);
0016a6  21ca              MOVS     r1,#0xca
0016a8  f24d4017          MOV      r0,#0xd417
0016ac  f7fffffe          BL       LCD_WriteReg
;;;1804   		LCD_WriteReg(0xD418,0x02);
0016b0  2102              MOVS     r1,#2
0016b2  f24d4018          MOV      r0,#0xd418
0016b6  f7fffffe          BL       LCD_WriteReg
;;;1805   		LCD_WriteReg(0xD419,0x00);
0016ba  2100              MOVS     r1,#0
0016bc  f24d4019          MOV      r0,#0xd419
0016c0  f7fffffe          BL       LCD_WriteReg
;;;1806   		LCD_WriteReg(0xD41A,0x02);
0016c4  2102              MOVS     r1,#2
0016c6  f24d401a          MOV      r0,#0xd41a
0016ca  f7fffffe          BL       LCD_WriteReg
;;;1807   		LCD_WriteReg(0xD41B,0x01);
0016ce  e000              B        |L13.5842|
                  |L13.5840|
0016d0  e2ff              B        |L13.7378|
                  |L13.5842|
0016d2  2101              MOVS     r1,#1
0016d4  f24d401b          MOV      r0,#0xd41b
0016d8  f7fffffe          BL       LCD_WriteReg
;;;1808   		LCD_WriteReg(0xD41C,0x02);
0016dc  2102              MOVS     r1,#2
0016de  f24d401c          MOV      r0,#0xd41c
0016e2  f7fffffe          BL       LCD_WriteReg
;;;1809   		LCD_WriteReg(0xD41D,0x34);
0016e6  2134              MOVS     r1,#0x34
0016e8  f24d401d          MOV      r0,#0xd41d
0016ec  f7fffffe          BL       LCD_WriteReg
;;;1810   		LCD_WriteReg(0xD41E,0x02);
0016f0  2102              MOVS     r1,#2
0016f2  f24d401e          MOV      r0,#0xd41e
0016f6  f7fffffe          BL       LCD_WriteReg
;;;1811   		LCD_WriteReg(0xD41F,0x67);
0016fa  2167              MOVS     r1,#0x67
0016fc  f24d401f          MOV      r0,#0xd41f
001700  f7fffffe          BL       LCD_WriteReg
;;;1812   		LCD_WriteReg(0xD420,0x02);
001704  2102              MOVS     r1,#2
001706  f24d4020          MOV      r0,#0xd420
00170a  f7fffffe          BL       LCD_WriteReg
;;;1813   		LCD_WriteReg(0xD421,0x84);
00170e  2184              MOVS     r1,#0x84
001710  f24d4021          MOV      r0,#0xd421
001714  f7fffffe          BL       LCD_WriteReg
;;;1814   		LCD_WriteReg(0xD422,0x02);
001718  2102              MOVS     r1,#2
00171a  f24d4022          MOV      r0,#0xd422
00171e  f7fffffe          BL       LCD_WriteReg
;;;1815   		LCD_WriteReg(0xD423,0xA4);
001722  21a4              MOVS     r1,#0xa4
001724  f24d4023          MOV      r0,#0xd423
001728  f7fffffe          BL       LCD_WriteReg
;;;1816   		LCD_WriteReg(0xD424,0x02);
00172c  2102              MOVS     r1,#2
00172e  f24d4024          MOV      r0,#0xd424
001732  f7fffffe          BL       LCD_WriteReg
;;;1817   		LCD_WriteReg(0xD425,0xB7);
001736  21b7              MOVS     r1,#0xb7
001738  f24d4025          MOV      r0,#0xd425
00173c  f7fffffe          BL       LCD_WriteReg
;;;1818   		LCD_WriteReg(0xD426,0x02);
001740  2102              MOVS     r1,#2
001742  f24d4026          MOV      r0,#0xd426
001746  f7fffffe          BL       LCD_WriteReg
;;;1819   		LCD_WriteReg(0xD427,0xCF);
00174a  21cf              MOVS     r1,#0xcf
00174c  f24d4027          MOV      r0,#0xd427
001750  f7fffffe          BL       LCD_WriteReg
;;;1820   		LCD_WriteReg(0xD428,0x02);
001754  2102              MOVS     r1,#2
001756  f24d4028          MOV      r0,#0xd428
00175a  f7fffffe          BL       LCD_WriteReg
;;;1821   		LCD_WriteReg(0xD429,0xDE);
00175e  21de              MOVS     r1,#0xde
001760  f24d4029          MOV      r0,#0xd429
001764  f7fffffe          BL       LCD_WriteReg
;;;1822   		LCD_WriteReg(0xD42A,0x02);
001768  2102              MOVS     r1,#2
00176a  f24d402a          MOV      r0,#0xd42a
00176e  f7fffffe          BL       LCD_WriteReg
;;;1823   		LCD_WriteReg(0xD42B,0xF2);
001772  21f2              MOVS     r1,#0xf2
001774  f24d402b          MOV      r0,#0xd42b
001778  f7fffffe          BL       LCD_WriteReg
;;;1824   		LCD_WriteReg(0xD42C,0x02);
00177c  2102              MOVS     r1,#2
00177e  f24d402c          MOV      r0,#0xd42c
001782  f7fffffe          BL       LCD_WriteReg
;;;1825   		LCD_WriteReg(0xD42D,0xFE);
001786  21fe              MOVS     r1,#0xfe
001788  f24d402d          MOV      r0,#0xd42d
00178c  f7fffffe          BL       LCD_WriteReg
;;;1826   		LCD_WriteReg(0xD42E,0x03);
001790  2103              MOVS     r1,#3
001792  f24d402e          MOV      r0,#0xd42e
001796  f7fffffe          BL       LCD_WriteReg
;;;1827   		LCD_WriteReg(0xD42F,0x10);
00179a  2110              MOVS     r1,#0x10
00179c  f24d402f          MOV      r0,#0xd42f
0017a0  f7fffffe          BL       LCD_WriteReg
;;;1828   		LCD_WriteReg(0xD430,0x03);
0017a4  2103              MOVS     r1,#3
0017a6  f24d4030          MOV      r0,#0xd430
0017aa  f7fffffe          BL       LCD_WriteReg
;;;1829   		LCD_WriteReg(0xD431,0x33);
0017ae  2133              MOVS     r1,#0x33
0017b0  f24d4031          MOV      r0,#0xd431
0017b4  f7fffffe          BL       LCD_WriteReg
;;;1830   		LCD_WriteReg(0xD432,0x03);
0017b8  2103              MOVS     r1,#3
0017ba  f24d4032          MOV      r0,#0xd432
0017be  f7fffffe          BL       LCD_WriteReg
;;;1831   		LCD_WriteReg(0xD433,0x6D);
0017c2  216d              MOVS     r1,#0x6d
0017c4  f24d4033          MOV      r0,#0xd433
0017c8  f7fffffe          BL       LCD_WriteReg
;;;1832   		LCD_WriteReg(0xD500,0x00);
0017cc  2100              MOVS     r1,#0
0017ce  f44f4055          MOV      r0,#0xd500
0017d2  f7fffffe          BL       LCD_WriteReg
;;;1833   		LCD_WriteReg(0xD501,0x33);
0017d6  2133              MOVS     r1,#0x33
0017d8  f24d5001          MOV      r0,#0xd501
0017dc  f7fffffe          BL       LCD_WriteReg
;;;1834   		LCD_WriteReg(0xD502,0x00);
0017e0  2100              MOVS     r1,#0
0017e2  f24d5002          MOV      r0,#0xd502
0017e6  f7fffffe          BL       LCD_WriteReg
;;;1835   		LCD_WriteReg(0xD503,0x34);
0017ea  2134              MOVS     r1,#0x34
0017ec  f24d5003          MOV      r0,#0xd503
0017f0  f7fffffe          BL       LCD_WriteReg
;;;1836   		LCD_WriteReg(0xD504,0x00);
0017f4  2100              MOVS     r1,#0
0017f6  f24d5004          MOV      r0,#0xd504
0017fa  f7fffffe          BL       LCD_WriteReg
;;;1837   		LCD_WriteReg(0xD505,0x3A);
0017fe  213a              MOVS     r1,#0x3a
001800  f24d5005          MOV      r0,#0xd505
001804  f7fffffe          BL       LCD_WriteReg
;;;1838   		LCD_WriteReg(0xD506,0x00);
001808  2100              MOVS     r1,#0
00180a  f24d5006          MOV      r0,#0xd506
00180e  f7fffffe          BL       LCD_WriteReg
;;;1839   		LCD_WriteReg(0xD507,0x4A);
001812  214a              MOVS     r1,#0x4a
001814  f24d5007          MOV      r0,#0xd507
001818  f7fffffe          BL       LCD_WriteReg
;;;1840   		LCD_WriteReg(0xD508,0x00);
00181c  2100              MOVS     r1,#0
00181e  f24d5008          MOV      r0,#0xd508
001822  f7fffffe          BL       LCD_WriteReg
;;;1841   		LCD_WriteReg(0xD509,0x5C);
001826  215c              MOVS     r1,#0x5c
001828  f24d5009          MOV      r0,#0xd509
00182c  f7fffffe          BL       LCD_WriteReg
;;;1842   		LCD_WriteReg(0xD50A,0x00);
001830  2100              MOVS     r1,#0
001832  f24d500a          MOV      r0,#0xd50a
001836  f7fffffe          BL       LCD_WriteReg
;;;1843   		LCD_WriteReg(0xD50B,0x81);
00183a  2181              MOVS     r1,#0x81
00183c  f24d500b          MOV      r0,#0xd50b
001840  f7fffffe          BL       LCD_WriteReg
;;;1844   
;;;1845   		LCD_WriteReg(0xD50C,0x00);
001844  2100              MOVS     r1,#0
001846  f24d500c          MOV      r0,#0xd50c
00184a  f7fffffe          BL       LCD_WriteReg
;;;1846   		LCD_WriteReg(0xD50D,0xA6);
00184e  21a6              MOVS     r1,#0xa6
001850  f24d500d          MOV      r0,#0xd50d
001854  f7fffffe          BL       LCD_WriteReg
;;;1847   		LCD_WriteReg(0xD50E,0x00);
001858  2100              MOVS     r1,#0
00185a  f24d500e          MOV      r0,#0xd50e
00185e  f7fffffe          BL       LCD_WriteReg
;;;1848   		LCD_WriteReg(0xD50F,0xE5);
001862  21e5              MOVS     r1,#0xe5
001864  f24d500f          MOV      r0,#0xd50f
001868  f7fffffe          BL       LCD_WriteReg
;;;1849   		LCD_WriteReg(0xD510,0x01);
00186c  2101              MOVS     r1,#1
00186e  f24d5010          MOV      r0,#0xd510
001872  f7fffffe          BL       LCD_WriteReg
;;;1850   		LCD_WriteReg(0xD511,0x13);
001876  2113              MOVS     r1,#0x13
001878  f24d5011          MOV      r0,#0xd511
00187c  f7fffffe          BL       LCD_WriteReg
;;;1851   		LCD_WriteReg(0xD512,0x01);
001880  2101              MOVS     r1,#1
001882  f24d5012          MOV      r0,#0xd512
001886  f7fffffe          BL       LCD_WriteReg
;;;1852   		LCD_WriteReg(0xD513,0x54);
00188a  2154              MOVS     r1,#0x54
00188c  f24d5013          MOV      r0,#0xd513
001890  f7fffffe          BL       LCD_WriteReg
;;;1853   		LCD_WriteReg(0xD514,0x01);
001894  2101              MOVS     r1,#1
001896  f24d5014          MOV      r0,#0xd514
00189a  f7fffffe          BL       LCD_WriteReg
;;;1854   		LCD_WriteReg(0xD515,0x82);
00189e  2182              MOVS     r1,#0x82
0018a0  f24d5015          MOV      r0,#0xd515
0018a4  f7fffffe          BL       LCD_WriteReg
;;;1855   		LCD_WriteReg(0xD516,0x01);
0018a8  2101              MOVS     r1,#1
0018aa  f24d5016          MOV      r0,#0xd516
0018ae  f7fffffe          BL       LCD_WriteReg
;;;1856   		LCD_WriteReg(0xD517,0xCA);
0018b2  21ca              MOVS     r1,#0xca
0018b4  f24d5017          MOV      r0,#0xd517
0018b8  f7fffffe          BL       LCD_WriteReg
;;;1857   		LCD_WriteReg(0xD518,0x02);
0018bc  2102              MOVS     r1,#2
0018be  f24d5018          MOV      r0,#0xd518
0018c2  f7fffffe          BL       LCD_WriteReg
;;;1858   		LCD_WriteReg(0xD519,0x00);
0018c6  2100              MOVS     r1,#0
0018c8  f24d5019          MOV      r0,#0xd519
0018cc  f7fffffe          BL       LCD_WriteReg
;;;1859   		LCD_WriteReg(0xD51A,0x02);
0018d0  2102              MOVS     r1,#2
0018d2  f24d501a          MOV      r0,#0xd51a
0018d6  f7fffffe          BL       LCD_WriteReg
;;;1860   		LCD_WriteReg(0xD51B,0x01);
0018da  2101              MOVS     r1,#1
0018dc  f24d501b          MOV      r0,#0xd51b
0018e0  f7fffffe          BL       LCD_WriteReg
;;;1861   		LCD_WriteReg(0xD51C,0x02);
0018e4  2102              MOVS     r1,#2
0018e6  f24d501c          MOV      r0,#0xd51c
0018ea  f7fffffe          BL       LCD_WriteReg
;;;1862   		LCD_WriteReg(0xD51D,0x34);
0018ee  2134              MOVS     r1,#0x34
0018f0  f24d501d          MOV      r0,#0xd51d
0018f4  f7fffffe          BL       LCD_WriteReg
;;;1863   		LCD_WriteReg(0xD51E,0x02);
0018f8  2102              MOVS     r1,#2
0018fa  f24d501e          MOV      r0,#0xd51e
0018fe  f7fffffe          BL       LCD_WriteReg
;;;1864   		LCD_WriteReg(0xD51F,0x67);
001902  2167              MOVS     r1,#0x67
001904  f24d501f          MOV      r0,#0xd51f
001908  f7fffffe          BL       LCD_WriteReg
;;;1865   		LCD_WriteReg(0xD520,0x02);
00190c  2102              MOVS     r1,#2
00190e  f24d5020          MOV      r0,#0xd520
001912  f7fffffe          BL       LCD_WriteReg
;;;1866   		LCD_WriteReg(0xD521,0x84);
001916  2184              MOVS     r1,#0x84
001918  f24d5021          MOV      r0,#0xd521
00191c  f7fffffe          BL       LCD_WriteReg
;;;1867   		LCD_WriteReg(0xD522,0x02);
001920  2102              MOVS     r1,#2
001922  f24d5022          MOV      r0,#0xd522
001926  f7fffffe          BL       LCD_WriteReg
;;;1868   		LCD_WriteReg(0xD523,0xA4);
00192a  21a4              MOVS     r1,#0xa4
00192c  f24d5023          MOV      r0,#0xd523
001930  f7fffffe          BL       LCD_WriteReg
;;;1869   		LCD_WriteReg(0xD524,0x02);
001934  2102              MOVS     r1,#2
001936  f24d5024          MOV      r0,#0xd524
00193a  f7fffffe          BL       LCD_WriteReg
;;;1870   		LCD_WriteReg(0xD525,0xB7);
00193e  21b7              MOVS     r1,#0xb7
001940  f24d5025          MOV      r0,#0xd525
001944  f7fffffe          BL       LCD_WriteReg
;;;1871   		LCD_WriteReg(0xD526,0x02);
001948  2102              MOVS     r1,#2
00194a  f24d5026          MOV      r0,#0xd526
00194e  f7fffffe          BL       LCD_WriteReg
;;;1872   		LCD_WriteReg(0xD527,0xCF);
001952  21cf              MOVS     r1,#0xcf
001954  f24d5027          MOV      r0,#0xd527
001958  f7fffffe          BL       LCD_WriteReg
;;;1873   		LCD_WriteReg(0xD528,0x02);
00195c  2102              MOVS     r1,#2
00195e  f24d5028          MOV      r0,#0xd528
001962  f7fffffe          BL       LCD_WriteReg
;;;1874   		LCD_WriteReg(0xD529,0xDE);
001966  21de              MOVS     r1,#0xde
001968  f24d5029          MOV      r0,#0xd529
00196c  f7fffffe          BL       LCD_WriteReg
;;;1875   		LCD_WriteReg(0xD52A,0x02);
001970  2102              MOVS     r1,#2
001972  f24d502a          MOV      r0,#0xd52a
001976  f7fffffe          BL       LCD_WriteReg
;;;1876   		LCD_WriteReg(0xD52B,0xF2);
00197a  21f2              MOVS     r1,#0xf2
00197c  f24d502b          MOV      r0,#0xd52b
001980  f7fffffe          BL       LCD_WriteReg
;;;1877   		LCD_WriteReg(0xD52C,0x02);
001984  2102              MOVS     r1,#2
001986  f24d502c          MOV      r0,#0xd52c
00198a  f7fffffe          BL       LCD_WriteReg
;;;1878   		LCD_WriteReg(0xD52D,0xFE);
00198e  21fe              MOVS     r1,#0xfe
001990  f24d502d          MOV      r0,#0xd52d
001994  f7fffffe          BL       LCD_WriteReg
;;;1879   		LCD_WriteReg(0xD52E,0x03);
001998  2103              MOVS     r1,#3
00199a  f24d502e          MOV      r0,#0xd52e
00199e  f7fffffe          BL       LCD_WriteReg
;;;1880   		LCD_WriteReg(0xD52F,0x10);
0019a2  2110              MOVS     r1,#0x10
0019a4  f24d502f          MOV      r0,#0xd52f
0019a8  f7fffffe          BL       LCD_WriteReg
;;;1881   		LCD_WriteReg(0xD530,0x03);
0019ac  2103              MOVS     r1,#3
0019ae  f24d5030          MOV      r0,#0xd530
0019b2  f7fffffe          BL       LCD_WriteReg
;;;1882   		LCD_WriteReg(0xD531,0x33);
0019b6  2133              MOVS     r1,#0x33
0019b8  f24d5031          MOV      r0,#0xd531
0019bc  f7fffffe          BL       LCD_WriteReg
;;;1883   		LCD_WriteReg(0xD532,0x03);
0019c0  2103              MOVS     r1,#3
0019c2  f24d5032          MOV      r0,#0xd532
0019c6  f7fffffe          BL       LCD_WriteReg
;;;1884   		LCD_WriteReg(0xD533,0x6D);
0019ca  216d              MOVS     r1,#0x6d
0019cc  f24d5033          MOV      r0,#0xd533
0019d0  f7fffffe          BL       LCD_WriteReg
;;;1885   		LCD_WriteReg(0xD600,0x00);
0019d4  2100              MOVS     r1,#0
0019d6  f44f4056          MOV      r0,#0xd600
0019da  f7fffffe          BL       LCD_WriteReg
;;;1886   		LCD_WriteReg(0xD601,0x33);
0019de  2133              MOVS     r1,#0x33
0019e0  f24d6001          MOV      r0,#0xd601
0019e4  f7fffffe          BL       LCD_WriteReg
;;;1887   		LCD_WriteReg(0xD602,0x00);
0019e8  2100              MOVS     r1,#0
0019ea  f24d6002          MOV      r0,#0xd602
0019ee  f7fffffe          BL       LCD_WriteReg
;;;1888   		LCD_WriteReg(0xD603,0x34);
0019f2  2134              MOVS     r1,#0x34
0019f4  f24d6003          MOV      r0,#0xd603
0019f8  f7fffffe          BL       LCD_WriteReg
;;;1889   		LCD_WriteReg(0xD604,0x00);
0019fc  2100              MOVS     r1,#0
0019fe  f24d6004          MOV      r0,#0xd604
001a02  f7fffffe          BL       LCD_WriteReg
;;;1890   		LCD_WriteReg(0xD605,0x3A);
001a06  213a              MOVS     r1,#0x3a
001a08  f24d6005          MOV      r0,#0xd605
001a0c  f7fffffe          BL       LCD_WriteReg
;;;1891   		LCD_WriteReg(0xD606,0x00);
001a10  2100              MOVS     r1,#0
001a12  f24d6006          MOV      r0,#0xd606
001a16  f7fffffe          BL       LCD_WriteReg
;;;1892   		LCD_WriteReg(0xD607,0x4A);
001a1a  214a              MOVS     r1,#0x4a
001a1c  f24d6007          MOV      r0,#0xd607
001a20  f7fffffe          BL       LCD_WriteReg
;;;1893   		LCD_WriteReg(0xD608,0x00);
001a24  2100              MOVS     r1,#0
001a26  f24d6008          MOV      r0,#0xd608
001a2a  f7fffffe          BL       LCD_WriteReg
;;;1894   		LCD_WriteReg(0xD609,0x5C);
001a2e  215c              MOVS     r1,#0x5c
001a30  f24d6009          MOV      r0,#0xd609
001a34  f7fffffe          BL       LCD_WriteReg
;;;1895   		LCD_WriteReg(0xD60A,0x00);
001a38  2100              MOVS     r1,#0
001a3a  f24d600a          MOV      r0,#0xd60a
001a3e  f7fffffe          BL       LCD_WriteReg
;;;1896   		LCD_WriteReg(0xD60B,0x81);
001a42  2181              MOVS     r1,#0x81
001a44  f24d600b          MOV      r0,#0xd60b
001a48  f7fffffe          BL       LCD_WriteReg
;;;1897   
;;;1898   		LCD_WriteReg(0xD60C,0x00);
001a4c  2100              MOVS     r1,#0
001a4e  f24d600c          MOV      r0,#0xd60c
001a52  f7fffffe          BL       LCD_WriteReg
;;;1899   		LCD_WriteReg(0xD60D,0xA6);
001a56  21a6              MOVS     r1,#0xa6
001a58  f24d600d          MOV      r0,#0xd60d
001a5c  f7fffffe          BL       LCD_WriteReg
;;;1900   		LCD_WriteReg(0xD60E,0x00);
001a60  2100              MOVS     r1,#0
001a62  f24d600e          MOV      r0,#0xd60e
001a66  f7fffffe          BL       LCD_WriteReg
;;;1901   		LCD_WriteReg(0xD60F,0xE5);
001a6a  21e5              MOVS     r1,#0xe5
001a6c  f24d600f          MOV      r0,#0xd60f
001a70  f7fffffe          BL       LCD_WriteReg
;;;1902   		LCD_WriteReg(0xD610,0x01);
001a74  2101              MOVS     r1,#1
001a76  f24d6010          MOV      r0,#0xd610
001a7a  f7fffffe          BL       LCD_WriteReg
;;;1903   		LCD_WriteReg(0xD611,0x13);
001a7e  2113              MOVS     r1,#0x13
001a80  f24d6011          MOV      r0,#0xd611
001a84  f7fffffe          BL       LCD_WriteReg
;;;1904   		LCD_WriteReg(0xD612,0x01);
001a88  2101              MOVS     r1,#1
001a8a  f24d6012          MOV      r0,#0xd612
001a8e  f7fffffe          BL       LCD_WriteReg
;;;1905   		LCD_WriteReg(0xD613,0x54);
001a92  2154              MOVS     r1,#0x54
001a94  f24d6013          MOV      r0,#0xd613
001a98  f7fffffe          BL       LCD_WriteReg
;;;1906   		LCD_WriteReg(0xD614,0x01);
001a9c  2101              MOVS     r1,#1
001a9e  f24d6014          MOV      r0,#0xd614
001aa2  f7fffffe          BL       LCD_WriteReg
;;;1907   		LCD_WriteReg(0xD615,0x82);
001aa6  2182              MOVS     r1,#0x82
001aa8  f24d6015          MOV      r0,#0xd615
001aac  f7fffffe          BL       LCD_WriteReg
;;;1908   		LCD_WriteReg(0xD616,0x01);
001ab0  2101              MOVS     r1,#1
001ab2  f24d6016          MOV      r0,#0xd616
001ab6  f7fffffe          BL       LCD_WriteReg
;;;1909   		LCD_WriteReg(0xD617,0xCA);
001aba  21ca              MOVS     r1,#0xca
001abc  f24d6017          MOV      r0,#0xd617
001ac0  f7fffffe          BL       LCD_WriteReg
;;;1910   		LCD_WriteReg(0xD618,0x02);
001ac4  2102              MOVS     r1,#2
001ac6  f24d6018          MOV      r0,#0xd618
001aca  f7fffffe          BL       LCD_WriteReg
;;;1911   		LCD_WriteReg(0xD619,0x00);
001ace  2100              MOVS     r1,#0
001ad0  f24d6019          MOV      r0,#0xd619
001ad4  f7fffffe          BL       LCD_WriteReg
;;;1912   		LCD_WriteReg(0xD61A,0x02);
001ad8  2102              MOVS     r1,#2
001ada  f24d601a          MOV      r0,#0xd61a
001ade  f7fffffe          BL       LCD_WriteReg
;;;1913   		LCD_WriteReg(0xD61B,0x01);
001ae2  2101              MOVS     r1,#1
001ae4  f24d601b          MOV      r0,#0xd61b
001ae8  f7fffffe          BL       LCD_WriteReg
;;;1914   		LCD_WriteReg(0xD61C,0x02);
001aec  2102              MOVS     r1,#2
001aee  f24d601c          MOV      r0,#0xd61c
001af2  f7fffffe          BL       LCD_WriteReg
;;;1915   		LCD_WriteReg(0xD61D,0x34);
001af6  2134              MOVS     r1,#0x34
001af8  f24d601d          MOV      r0,#0xd61d
001afc  f7fffffe          BL       LCD_WriteReg
;;;1916   		LCD_WriteReg(0xD61E,0x02);
001b00  2102              MOVS     r1,#2
001b02  f24d601e          MOV      r0,#0xd61e
001b06  f7fffffe          BL       LCD_WriteReg
;;;1917   		LCD_WriteReg(0xD61F,0x67);
001b0a  2167              MOVS     r1,#0x67
001b0c  f24d601f          MOV      r0,#0xd61f
001b10  f7fffffe          BL       LCD_WriteReg
;;;1918   		LCD_WriteReg(0xD620,0x02);
001b14  2102              MOVS     r1,#2
001b16  f24d6020          MOV      r0,#0xd620
001b1a  f7fffffe          BL       LCD_WriteReg
;;;1919   		LCD_WriteReg(0xD621,0x84);
001b1e  2184              MOVS     r1,#0x84
001b20  f24d6021          MOV      r0,#0xd621
001b24  f7fffffe          BL       LCD_WriteReg
;;;1920   		LCD_WriteReg(0xD622,0x02);
001b28  2102              MOVS     r1,#2
001b2a  f24d6022          MOV      r0,#0xd622
001b2e  f7fffffe          BL       LCD_WriteReg
;;;1921   		LCD_WriteReg(0xD623,0xA4);
001b32  21a4              MOVS     r1,#0xa4
001b34  f24d6023          MOV      r0,#0xd623
001b38  f7fffffe          BL       LCD_WriteReg
;;;1922   		LCD_WriteReg(0xD624,0x02);
001b3c  2102              MOVS     r1,#2
001b3e  f24d6024          MOV      r0,#0xd624
001b42  f7fffffe          BL       LCD_WriteReg
;;;1923   		LCD_WriteReg(0xD625,0xB7);
001b46  21b7              MOVS     r1,#0xb7
001b48  f24d6025          MOV      r0,#0xd625
001b4c  f7fffffe          BL       LCD_WriteReg
;;;1924   		LCD_WriteReg(0xD626,0x02);
001b50  2102              MOVS     r1,#2
001b52  f24d6026          MOV      r0,#0xd626
001b56  f7fffffe          BL       LCD_WriteReg
;;;1925   		LCD_WriteReg(0xD627,0xCF);
001b5a  21cf              MOVS     r1,#0xcf
001b5c  f24d6027          MOV      r0,#0xd627
001b60  f7fffffe          BL       LCD_WriteReg
;;;1926   		LCD_WriteReg(0xD628,0x02);
001b64  2102              MOVS     r1,#2
001b66  f24d6028          MOV      r0,#0xd628
001b6a  f7fffffe          BL       LCD_WriteReg
;;;1927   		LCD_WriteReg(0xD629,0xDE);
001b6e  21de              MOVS     r1,#0xde
001b70  f24d6029          MOV      r0,#0xd629
001b74  f7fffffe          BL       LCD_WriteReg
;;;1928   		LCD_WriteReg(0xD62A,0x02);
001b78  2102              MOVS     r1,#2
001b7a  f24d602a          MOV      r0,#0xd62a
001b7e  f7fffffe          BL       LCD_WriteReg
;;;1929   		LCD_WriteReg(0xD62B,0xF2);
001b82  21f2              MOVS     r1,#0xf2
001b84  f24d602b          MOV      r0,#0xd62b
001b88  f7fffffe          BL       LCD_WriteReg
;;;1930   		LCD_WriteReg(0xD62C,0x02);
001b8c  2102              MOVS     r1,#2
001b8e  f24d602c          MOV      r0,#0xd62c
001b92  f7fffffe          BL       LCD_WriteReg
;;;1931   		LCD_WriteReg(0xD62D,0xFE);
001b96  21fe              MOVS     r1,#0xfe
001b98  f24d602d          MOV      r0,#0xd62d
001b9c  f7fffffe          BL       LCD_WriteReg
;;;1932   		LCD_WriteReg(0xD62E,0x03);
001ba0  2103              MOVS     r1,#3
001ba2  f24d602e          MOV      r0,#0xd62e
001ba6  f7fffffe          BL       LCD_WriteReg
;;;1933   		LCD_WriteReg(0xD62F,0x10);
001baa  2110              MOVS     r1,#0x10
001bac  f24d602f          MOV      r0,#0xd62f
001bb0  f7fffffe          BL       LCD_WriteReg
;;;1934   		LCD_WriteReg(0xD630,0x03);
001bb4  2103              MOVS     r1,#3
001bb6  f24d6030          MOV      r0,#0xd630
001bba  f7fffffe          BL       LCD_WriteReg
;;;1935   		LCD_WriteReg(0xD631,0x33);
001bbe  2133              MOVS     r1,#0x33
001bc0  f24d6031          MOV      r0,#0xd631
001bc4  f7fffffe          BL       LCD_WriteReg
;;;1936   		LCD_WriteReg(0xD632,0x03);
001bc8  2103              MOVS     r1,#3
001bca  f24d6032          MOV      r0,#0xd632
001bce  f7fffffe          BL       LCD_WriteReg
;;;1937   		LCD_WriteReg(0xD633,0x6D);
001bd2  216d              MOVS     r1,#0x6d
001bd4  f24d6033          MOV      r0,#0xd633
001bd8  f7fffffe          BL       LCD_WriteReg
;;;1938   		//LV2 Page 0 enable
;;;1939   		LCD_WriteReg(0xF000,0x55);
001bdc  2155              MOVS     r1,#0x55
001bde  4618              MOV      r0,r3
001be0  f7fffffe          BL       LCD_WriteReg
;;;1940   		LCD_WriteReg(0xF001,0xAA);
001be4  21aa              MOVS     r1,#0xaa
001be6  4628              MOV      r0,r5
001be8  f7fffffe          BL       LCD_WriteReg
;;;1941   		LCD_WriteReg(0xF002,0x52);
001bec  2152              MOVS     r1,#0x52
001bee  4630              MOV      r0,r6
001bf0  f7fffffe          BL       LCD_WriteReg
;;;1942   		LCD_WriteReg(0xF003,0x08);
001bf4  2108              MOVS     r1,#8
001bf6  4638              MOV      r0,r7
001bf8  f7fffffe          BL       LCD_WriteReg
;;;1943   		LCD_WriteReg(0xF004,0x00);
001bfc  2100              MOVS     r1,#0
001bfe  4648              MOV      r0,r9
001c00  f7fffffe          BL       LCD_WriteReg
;;;1944   		//Display control
;;;1945   		LCD_WriteReg(0xB100, 0xCC);
001c04  21cc              MOVS     r1,#0xcc
001c06  4658              MOV      r0,r11
001c08  f7fffffe          BL       LCD_WriteReg
;;;1946   		LCD_WriteReg(0xB101, 0x00);
001c0c  2100              MOVS     r1,#0
001c0e  f24b1001          MOV      r0,#0xb101
001c12  f7fffffe          BL       LCD_WriteReg
;;;1947   		//Source hold time
;;;1948   		LCD_WriteReg(0xB600,0x05);
001c16  2105              MOVS     r1,#5
001c18  4650              MOV      r0,r10
001c1a  f7fffffe          BL       LCD_WriteReg
;;;1949   		//Gate EQ control
;;;1950   		LCD_WriteReg(0xB700,0x70);
001c1e  2170              MOVS     r1,#0x70
001c20  f44f4037          MOV      r0,#0xb700
001c24  f7fffffe          BL       LCD_WriteReg
;;;1951   		LCD_WriteReg(0xB701,0x70);
001c28  2170              MOVS     r1,#0x70
001c2a  f24b7001          MOV      r0,#0xb701
001c2e  f7fffffe          BL       LCD_WriteReg
;;;1952   		//Source EQ control (Mode 2)
;;;1953   		LCD_WriteReg(0xB800,0x01);
001c32  2101              MOVS     r1,#1
001c34  f44f4038          MOV      r0,#0xb800
001c38  f7fffffe          BL       LCD_WriteReg
;;;1954   		LCD_WriteReg(0xB801,0x03);
001c3c  2103              MOVS     r1,#3
001c3e  f64b0001          MOV      r0,#0xb801
001c42  f7fffffe          BL       LCD_WriteReg
;;;1955   		LCD_WriteReg(0xB802,0x03);
001c46  2103              MOVS     r1,#3
001c48  f64b0002          MOV      r0,#0xb802
001c4c  f7fffffe          BL       LCD_WriteReg
;;;1956   		LCD_WriteReg(0xB803,0x03);
001c50  2103              MOVS     r1,#3
001c52  f64b0003          MOV      r0,#0xb803
001c56  f7fffffe          BL       LCD_WriteReg
;;;1957   		//Inversion mode (2-dot)
;;;1958   		LCD_WriteReg(0xBC00,0x02);
001c5a  2102              MOVS     r1,#2
001c5c  f44f403c          MOV      r0,#0xbc00
001c60  f7fffffe          BL       LCD_WriteReg
;;;1959   		LCD_WriteReg(0xBC01,0x00);
001c64  2100              MOVS     r1,#0
001c66  f64b4001          MOV      r0,#0xbc01
001c6a  f7fffffe          BL       LCD_WriteReg
;;;1960   		LCD_WriteReg(0xBC02,0x00);
001c6e  2100              MOVS     r1,#0
001c70  f64b4002          MOV      r0,#0xbc02
001c74  f7fffffe          BL       LCD_WriteReg
;;;1961   		//Timing control 4H w/ 4-delay
;;;1962   		LCD_WriteReg(0xC900,0xD0);
001c78  21d0              MOVS     r1,#0xd0
001c7a  f44f4049          MOV      r0,#0xc900
001c7e  f7fffffe          BL       LCD_WriteReg
;;;1963   		LCD_WriteReg(0xC901,0x02);
001c82  2102              MOVS     r1,#2
001c84  f64c1001          MOV      r0,#0xc901
001c88  f7fffffe          BL       LCD_WriteReg
;;;1964   		LCD_WriteReg(0xC902,0x50);
001c8c  2150              MOVS     r1,#0x50
001c8e  f64c1002          MOV      r0,#0xc902
001c92  f7fffffe          BL       LCD_WriteReg
;;;1965   		LCD_WriteReg(0xC903,0x50);
001c96  2150              MOVS     r1,#0x50
001c98  f64c1003          MOV      r0,#0xc903
001c9c  f7fffffe          BL       LCD_WriteReg
;;;1966   		LCD_WriteReg(0xC904,0x50);
001ca0  2150              MOVS     r1,#0x50
001ca2  f64c1004          MOV      r0,#0xc904
001ca6  f7fffffe          BL       LCD_WriteReg
;;;1967   		LCD_WriteReg(0x3500,0x00);
001caa  2100              MOVS     r1,#0
001cac  f44f5054          MOV      r0,#0x3500
001cb0  f7fffffe          BL       LCD_WriteReg
;;;1968   		LCD_WriteReg(0x3A00,0x55);  //16-bit/pixel
001cb4  2155              MOVS     r1,#0x55
001cb6  f44f5068          MOV      r0,#0x3a00
001cba  f7fffffe          BL       LCD_WriteReg
;;;1969   		LCD_WR_REG(0x1100);
001cbe  f44f5088          MOV      r0,#0x1100
001cc2  8020              STRH     r0,[r4,#0]
;;;1970   		delay_us(120);
001cc4  2078              MOVS     r0,#0x78
001cc6  f7fffffe          BL       delay_us
;;;1971   		LCD_WR_REG(0x2900);
001cca  f44f5024          MOV      r0,#0x2900
                  |L13.7374|
001cce  8020              STRH     r0,[r4,#0]
                  |L13.7376|
001cd0  e3fe              B        |L13.9424|
                  |L13.7378|
;;;1972   	}else if(lcddev.id==0x9325)//9325
001cd2  f5a04113          SUB      r1,r0,#0x9300
;;;1973   	{
;;;1974   		LCD_WriteReg(0x00E5,0x78F0); 
;;;1975   		LCD_WriteReg(0x0001,0x0100); 
;;;1976   		LCD_WriteReg(0x0002,0x0700); 
001cd6  f44f69e0          MOV      r9,#0x700
;;;1977   		LCD_WriteReg(0x0003,0x1030); 
;;;1978   		LCD_WriteReg(0x0004,0x0000); 
;;;1979   		LCD_WriteReg(0x0008,0x0202);  
001cda  f2402a02          MOV      r10,#0x202
;;;1980   		LCD_WriteReg(0x0009,0x0000);
;;;1981   		LCD_WriteReg(0x000A,0x0000); 
;;;1982   		LCD_WriteReg(0x000C,0x0000); 
;;;1983   		LCD_WriteReg(0x000D,0x0000);
;;;1984   		LCD_WriteReg(0x000F,0x0000);
;;;1985   		//power on sequence VGHVGL
;;;1986   		LCD_WriteReg(0x0010,0x0000);   
;;;1987   		LCD_WriteReg(0x0011,0x0007);  
;;;1988   		LCD_WriteReg(0x0012,0x0000);  
;;;1989   		LCD_WriteReg(0x0013,0x0000); 
;;;1990   		LCD_WriteReg(0x0007,0x0000); 
;;;1991   		//vgh 
;;;1992   		LCD_WriteReg(0x0010,0x1690);   
;;;1993   		LCD_WriteReg(0x0011,0x0227);
;;;1994   		//delayms(100);
;;;1995   		//vregiout 
;;;1996   		LCD_WriteReg(0x0012,0x009D); //0x001b
;;;1997   		//delayms(100); 
;;;1998   		//vom amplitude
;;;1999   		LCD_WriteReg(0x0013,0x1900);
;;;2000   		//delayms(100); 
;;;2001   		//vom H
;;;2002   		LCD_WriteReg(0x0029,0x0025); 
;;;2003   		LCD_WriteReg(0x002B,0x000D); 
;;;2004   		//gamma
;;;2005   		LCD_WriteReg(0x0030,0x0007);
;;;2006   		LCD_WriteReg(0x0031,0x0303);
;;;2007   		LCD_WriteReg(0x0032,0x0003);// 0006
;;;2008   		LCD_WriteReg(0x0035,0x0206);
;;;2009   		LCD_WriteReg(0x0036,0x0008);
;;;2010   		LCD_WriteReg(0x0037,0x0406); 
;;;2011   		LCD_WriteReg(0x0038,0x0304);//0200
;;;2012   		LCD_WriteReg(0x0039,0x0007); 
;;;2013   		LCD_WriteReg(0x003C,0x0602);// 0504
;;;2014   		LCD_WriteReg(0x003D,0x0008); 
;;;2015   		//ram
;;;2016   		LCD_WriteReg(0x0050,0x0000); 
;;;2017   		LCD_WriteReg(0x0051,0x00EF);
;;;2018   		LCD_WriteReg(0x0052,0x0000); 
;;;2019   		LCD_WriteReg(0x0053,0x013F);  
;;;2020   		LCD_WriteReg(0x0060,0xA700); 
001cde  f44f4b27          MOV      r11,#0xa700
001ce2  3925              SUBS     r1,r1,#0x25           ;1972
001ce4  d024              BEQ      |L13.7472|
;;;2021   		LCD_WriteReg(0x0061,0x0001); 
;;;2022   		LCD_WriteReg(0x006A,0x0000); 
;;;2023   		//
;;;2024   		LCD_WriteReg(0x0080,0x0000); 
;;;2025   		LCD_WriteReg(0x0081,0x0000); 
;;;2026   		LCD_WriteReg(0x0082,0x0000); 
;;;2027   		LCD_WriteReg(0x0083,0x0000); 
;;;2028   		LCD_WriteReg(0x0084,0x0000); 
;;;2029   		LCD_WriteReg(0x0085,0x0000); 
;;;2030   		//
;;;2031   		LCD_WriteReg(0x0090,0x0010); 
;;;2032   		LCD_WriteReg(0x0092,0x0600); 
;;;2033   		
;;;2034   		LCD_WriteReg(0x0007,0x0133);
;;;2035   		LCD_WriteReg(0x00,0x0022);//
;;;2036   	}else if(lcddev.id==0x9328)//ILI9328   OK  
;;;2037   	{
;;;2038     		LCD_WriteReg(0x00EC,0x108F);// internal timeing      
;;;2039    		LCD_WriteReg(0x00EF,0x1234);// ADD        
;;;2040   		//LCD_WriteReg(0x00e7,0x0010);      
;;;2041           //LCD_WriteReg(0x0000,0x0001);//开启内部时钟
;;;2042           LCD_WriteReg(0x0001,0x0100);     
;;;2043           LCD_WriteReg(0x0002,0x0700);//电源开启                    
;;;2044   		//LCD_WriteReg(0x0003,(1<<3)|(1<<4) ); 	//65K  RGB
;;;2045   		//DRIVE TABLE(寄存器 03H)
;;;2046   		//BIT3=AM BIT4:5=ID0:1
;;;2047   		//AM ID0 ID1   FUNCATION
;;;2048   		// 0  0   0	   R->L D->U
;;;2049   		// 1  0   0	   D->U	R->L
;;;2050   		// 0  1   0	   L->R D->U
;;;2051   		// 1  1   0    D->U	L->R
;;;2052   		// 0  0   1	   R->L U->D
;;;2053   		// 1  0   1    U->D	R->L
;;;2054   		// 0  1   1    L->R U->D 正常就用这个.
;;;2055   		// 1  1   1	   U->D	L->R
;;;2056           LCD_WriteReg(0x0003,(1<<12)|(3<<4)|(0<<3) );//65K    
;;;2057           LCD_WriteReg(0x0004,0x0000);                                   
;;;2058           LCD_WriteReg(0x0008,0x0202);	           
;;;2059           LCD_WriteReg(0x0009,0x0000);         
;;;2060           LCD_WriteReg(0x000a,0x0000);//display setting         
;;;2061           LCD_WriteReg(0x000c,0x0001);//display setting          
;;;2062           LCD_WriteReg(0x000d,0x0000);//0f3c          
;;;2063           LCD_WriteReg(0x000f,0x0000);
;;;2064   		//电源配置
;;;2065           LCD_WriteReg(0x0010,0x0000);   
;;;2066           LCD_WriteReg(0x0011,0x0007);
;;;2067           LCD_WriteReg(0x0012,0x0000);                                                                 
;;;2068           LCD_WriteReg(0x0013,0x0000);                 
;;;2069        	LCD_WriteReg(0x0007,0x0001);                 
;;;2070          	delay_ms(50); 
;;;2071           LCD_WriteReg(0x0010,0x1490);   
;;;2072           LCD_WriteReg(0x0011,0x0227);
;;;2073           delay_ms(50); 
;;;2074           LCD_WriteReg(0x0012,0x008A);                  
;;;2075           delay_ms(50); 
;;;2076           LCD_WriteReg(0x0013,0x1a00);   
;;;2077           LCD_WriteReg(0x0029,0x0006);
;;;2078           LCD_WriteReg(0x002b,0x000d);
;;;2079           delay_ms(50); 
;;;2080           LCD_WriteReg(0x0020,0x0000);                                                            
;;;2081           LCD_WriteReg(0x0021,0x0000);           
;;;2082   		delay_ms(50); 
;;;2083   		//伽马校正
;;;2084           LCD_WriteReg(0x0030,0x0000); 
;;;2085           LCD_WriteReg(0x0031,0x0604);   
;;;2086           LCD_WriteReg(0x0032,0x0305);
;;;2087           LCD_WriteReg(0x0035,0x0000);
;;;2088           LCD_WriteReg(0x0036,0x0C09); 
;;;2089           LCD_WriteReg(0x0037,0x0204);
;;;2090           LCD_WriteReg(0x0038,0x0301);        
;;;2091           LCD_WriteReg(0x0039,0x0707);     
001ce6  f2407707          MOV      r7,#0x707
001cea  1ec9              SUBS     r1,r1,#3              ;2036
001cec  d07e              BEQ      |L13.7660|
;;;2092           LCD_WriteReg(0x003c,0x0000);
;;;2093           LCD_WriteReg(0x003d,0x0a0a);
;;;2094           delay_ms(50); 
;;;2095           LCD_WriteReg(0x0050,0x0000); //水平GRAM起始位置 
;;;2096           LCD_WriteReg(0x0051,0x00ef); //水平GRAM终止位置                    
;;;2097           LCD_WriteReg(0x0052,0x0000); //垂直GRAM起始位置                    
;;;2098           LCD_WriteReg(0x0053,0x013f); //垂直GRAM终止位置  
;;;2099    
;;;2100            LCD_WriteReg(0x0060,0xa700);        
;;;2101           LCD_WriteReg(0x0061,0x0001); 
;;;2102           LCD_WriteReg(0x006a,0x0000);
;;;2103           LCD_WriteReg(0x0080,0x0000);
;;;2104           LCD_WriteReg(0x0081,0x0000);
;;;2105           LCD_WriteReg(0x0082,0x0000);
;;;2106           LCD_WriteReg(0x0083,0x0000);
;;;2107           LCD_WriteReg(0x0084,0x0000);
;;;2108           LCD_WriteReg(0x0085,0x0000);
;;;2109         
;;;2110           LCD_WriteReg(0x0090,0x0010);     
;;;2111           LCD_WriteReg(0x0092,0x0600);  
;;;2112           //开启显示设置    
;;;2113           LCD_WriteReg(0x0007,0x0133); 
;;;2114   	}else if(lcddev.id==0x9320)//测试OK.
;;;2115   	{
;;;2116   		LCD_WriteReg(0x00,0x0000);
;;;2117   		LCD_WriteReg(0x01,0x0100);	//Driver Output Contral.
;;;2118   		LCD_WriteReg(0x02,0x0700);	//LCD Driver Waveform Contral.
;;;2119   		LCD_WriteReg(0x03,0x1030);//Entry Mode Set.
;;;2120   		//LCD_WriteReg(0x03,0x1018);	//Entry Mode Set.
;;;2121   	
;;;2122   		LCD_WriteReg(0x04,0x0000);	//Scalling Contral.
;;;2123   		LCD_WriteReg(0x08,0x0202);	//Display Contral 2.(0x0207)
;;;2124   		LCD_WriteReg(0x09,0x0000);	//Display Contral 3.(0x0000)
;;;2125   		LCD_WriteReg(0x0a,0x0000);	//Frame Cycle Contal.(0x0000)
;;;2126   		LCD_WriteReg(0x0c,(1<<0));	//Extern Display Interface Contral 1.(0x0000)
;;;2127   		LCD_WriteReg(0x0d,0x0000);	//Frame Maker Position.
;;;2128   		LCD_WriteReg(0x0f,0x0000);	//Extern Display Interface Contral 2.	    
;;;2129   		delay_ms(50); 
;;;2130   		LCD_WriteReg(0x07,0x0101);	//Display Contral.
;;;2131   		delay_ms(50); 								  
;;;2132   		LCD_WriteReg(0x10,(1<<12)|(0<<8)|(1<<7)|(1<<6)|(0<<4));	//Power Control 1.(0x16b0)
;;;2133   		LCD_WriteReg(0x11,0x0007);								//Power Control 2.(0x0001)
;;;2134   		LCD_WriteReg(0x12,(1<<8)|(1<<4)|(0<<0));				//Power Control 3.(0x0138)
001cee  f44f7b88          MOV      r11,#0x110
001cf2  3108              ADDS     r1,r1,#8              ;2114
001cf4  d07b              BEQ      |L13.7662|
;;;2135   		LCD_WriteReg(0x13,0x0b00);								//Power Control 4.
;;;2136   		LCD_WriteReg(0x29,0x0000);								//Power Control 7.
;;;2137   	
;;;2138   		LCD_WriteReg(0x2b,(1<<14)|(1<<4));	    
;;;2139   		LCD_WriteReg(0x50,0);	//Set X Star
;;;2140   		//水平GRAM终止位置Set X End.
;;;2141   		LCD_WriteReg(0x51,239);	//Set Y Star
;;;2142   		LCD_WriteReg(0x52,0);	//Set Y End.t.
;;;2143   		LCD_WriteReg(0x53,319);	//
;;;2144   	
;;;2145   		LCD_WriteReg(0x60,0x2700);	//Driver Output Control.
;;;2146   		LCD_WriteReg(0x61,0x0001);	//Driver Output Control.
;;;2147   		LCD_WriteReg(0x6a,0x0000);	//Vertical Srcoll Control.
;;;2148   	
;;;2149   		LCD_WriteReg(0x80,0x0000);	//Display Position? Partial Display 1.
;;;2150   		LCD_WriteReg(0x81,0x0000);	//RAM Address Start? Partial Display 1.
;;;2151   		LCD_WriteReg(0x82,0x0000);	//RAM Address End-Partial Display 1.
;;;2152   		LCD_WriteReg(0x83,0x0000);	//Displsy Position? Partial Display 2.
;;;2153   		LCD_WriteReg(0x84,0x0000);	//RAM Address Start? Partial Display 2.
;;;2154   		LCD_WriteReg(0x85,0x0000);	//RAM Address End? Partial Display 2.
;;;2155   	
;;;2156   		LCD_WriteReg(0x90,(0<<7)|(16<<0));	//Frame Cycle Contral.(0x0013)
;;;2157   		LCD_WriteReg(0x92,0x0000);	//Panel Interface Contral 2.(0x0000)
;;;2158   		LCD_WriteReg(0x93,0x0001);	//Panel Interface Contral 3.
;;;2159   		LCD_WriteReg(0x95,0x0110);	//Frame Cycle Contral.(0x0110)
;;;2160   		LCD_WriteReg(0x97,(0<<8));	//
;;;2161   		LCD_WriteReg(0x98,0x0000);	//Frame Cycle Contral.	   
;;;2162   		LCD_WriteReg(0x07,0x0173);	//(0x0173)
;;;2163   	}else if(lcddev.id==0X9331)//OK |/|/|			 
001cf6  3911              SUBS     r1,r1,#0x11
001cf8  d07a              BEQ      |L13.7664|
;;;2164   	{
;;;2165   		LCD_WriteReg(0x00E7, 0x1014);
;;;2166   		LCD_WriteReg(0x0001, 0x0100); // set SS and SM bit
;;;2167   		LCD_WriteReg(0x0002, 0x0200); // set 1 line inversion
;;;2168           LCD_WriteReg(0x0003,(1<<12)|(3<<4)|(1<<3));//65K    
;;;2169   		//LCD_WriteReg(0x0003, 0x1030); // set GRAM write direction and BGR=1.
;;;2170   		LCD_WriteReg(0x0008, 0x0202); // set the back porch and front porch
;;;2171   		LCD_WriteReg(0x0009, 0x0000); // set non-display area refresh cycle ISC[3:0]
;;;2172   		LCD_WriteReg(0x000A, 0x0000); // FMARK function
;;;2173   		LCD_WriteReg(0x000C, 0x0000); // RGB interface setting
;;;2174   		LCD_WriteReg(0x000D, 0x0000); // Frame marker Position
;;;2175   		LCD_WriteReg(0x000F, 0x0000); // RGB interface polarity
;;;2176   		//*************Power On sequence ****************//
;;;2177   		LCD_WriteReg(0x0010, 0x0000); // SAP, BT[3:0], AP, DSTB, SLP, STB
;;;2178   		LCD_WriteReg(0x0011, 0x0007); // DC1[2:0], DC0[2:0], VC[2:0]
;;;2179   		LCD_WriteReg(0x0012, 0x0000); // VREG1OUT voltage
;;;2180   		LCD_WriteReg(0x0013, 0x0000); // VDV[4:0] for VCOM amplitude
;;;2181   		delay_ms(200); // Dis-charge capacitor power voltage
;;;2182   		LCD_WriteReg(0x0010, 0x1690); // SAP, BT[3:0], AP, DSTB, SLP, STB
;;;2183   		LCD_WriteReg(0x0011, 0x0227); // DC1[2:0], DC0[2:0], VC[2:0]
;;;2184   		delay_ms(50); // Delay 50ms
;;;2185   		LCD_WriteReg(0x0012, 0x000C); // Internal reference voltage= Vci;
;;;2186   		delay_ms(50); // Delay 50ms
;;;2187   		LCD_WriteReg(0x0013, 0x0800); // Set VDV[4:0] for VCOM amplitude
;;;2188   		LCD_WriteReg(0x0029, 0x0011); // Set VCM[5:0] for VCOMH
;;;2189   		LCD_WriteReg(0x002B, 0x000B); // Set Frame Rate
;;;2190   		delay_ms(50); // Delay 50ms
;;;2191   		LCD_WriteReg(0x0020, 0x0000); // GRAM horizontal Address
;;;2192   		LCD_WriteReg(0x0021, 0x013f); // GRAM Vertical Address
;;;2193   		// ----------- Adjust the Gamma Curve ----------//
;;;2194   		LCD_WriteReg(0x0030, 0x0000);
;;;2195   		LCD_WriteReg(0x0031, 0x0106);
;;;2196   		LCD_WriteReg(0x0032, 0x0000);
;;;2197   		LCD_WriteReg(0x0035, 0x0204);
;;;2198   		LCD_WriteReg(0x0036, 0x160A);
;;;2199   		LCD_WriteReg(0x0037, 0x0707);
;;;2200   		LCD_WriteReg(0x0038, 0x0106);
;;;2201   		LCD_WriteReg(0x0039, 0x0707);
;;;2202   		LCD_WriteReg(0x003C, 0x0402);
;;;2203   		LCD_WriteReg(0x003D, 0x0C0F);
;;;2204   		//------------------ Set GRAM area ---------------//
;;;2205   		LCD_WriteReg(0x0050, 0x0000); // Horizontal GRAM Start Address
;;;2206   		LCD_WriteReg(0x0051, 0x00EF); // Horizontal GRAM End Address
;;;2207   		LCD_WriteReg(0x0052, 0x0000); // Vertical GRAM Start Address
;;;2208   		LCD_WriteReg(0x0053, 0x013F); // Vertical GRAM Start Address
;;;2209   		LCD_WriteReg(0x0060, 0x2700); // Gate Scan Line
;;;2210   		LCD_WriteReg(0x0061, 0x0001); // NDL,VLE, REV 
;;;2211   		LCD_WriteReg(0x006A, 0x0000); // set scrolling line
;;;2212   		//-------------- Partial Display Control ---------//
;;;2213   		LCD_WriteReg(0x0080, 0x0000);
;;;2214   		LCD_WriteReg(0x0081, 0x0000);
;;;2215   		LCD_WriteReg(0x0082, 0x0000);
;;;2216   		LCD_WriteReg(0x0083, 0x0000);
;;;2217   		LCD_WriteReg(0x0084, 0x0000);
;;;2218   		LCD_WriteReg(0x0085, 0x0000);
;;;2219   		//-------------- Panel Control -------------------//
;;;2220   		LCD_WriteReg(0x0090, 0x0010);
;;;2221   		LCD_WriteReg(0x0092, 0x0600);
;;;2222   		LCD_WriteReg(0x0007, 0x0133); // 262K color and display ON
;;;2223   	}else if(lcddev.id==0x5408)
001cfa  f5a041a8          SUB      r1,r0,#0x5400
001cfe  3908              SUBS     r1,r1,#8
001d00  d077              BEQ      |L13.7666|
;;;2224   	{
;;;2225   		LCD_WriteReg(0x01,0x0100);								  
;;;2226   		LCD_WriteReg(0x02,0x0700);//LCD Driving Waveform Contral 
;;;2227   		LCD_WriteReg(0x03,0x1030);//Entry Mode设置 	   
;;;2228   		//指针从左至右自上而下的自动增模式
;;;2229   		//Normal Mode(Window Mode disable)
;;;2230   		//RGB格式
;;;2231   		//16位数据2次传输的8总线设置
;;;2232   		LCD_WriteReg(0x04,0x0000); //Scalling Control register     
;;;2233   		LCD_WriteReg(0x08,0x0207); //Display Control 2 
;;;2234   		LCD_WriteReg(0x09,0x0000); //Display Control 3	 
;;;2235   		LCD_WriteReg(0x0A,0x0000); //Frame Cycle Control	 
;;;2236   		LCD_WriteReg(0x0C,0x0000); //External Display Interface Control 1 
;;;2237   		LCD_WriteReg(0x0D,0x0000); //Frame Maker Position		 
;;;2238   		LCD_WriteReg(0x0F,0x0000); //External Display Interface Control 2 
;;;2239    		delay_ms(20);
;;;2240   		//TFT 液晶彩色图像显示方法14
;;;2241   		LCD_WriteReg(0x10,0x16B0); //0x14B0 //Power Control 1
;;;2242   		LCD_WriteReg(0x11,0x0001); //0x0007 //Power Control 2
;;;2243   		LCD_WriteReg(0x17,0x0001); //0x0000 //Power Control 3
;;;2244   		LCD_WriteReg(0x12,0x0138); //0x013B //Power Control 4
;;;2245   		LCD_WriteReg(0x13,0x0800); //0x0800 //Power Control 5
;;;2246   		LCD_WriteReg(0x29,0x0009); //NVM read data 2
;;;2247   		LCD_WriteReg(0x2a,0x0009); //NVM read data 3
;;;2248   		LCD_WriteReg(0xa4,0x0000);	 
;;;2249   		LCD_WriteReg(0x50,0x0000); //设置操作窗口的X轴开始列
;;;2250   		LCD_WriteReg(0x51,0x00EF); //设置操作窗口的X轴结束列
;;;2251   		LCD_WriteReg(0x52,0x0000); //设置操作窗口的Y轴开始行
;;;2252   		LCD_WriteReg(0x53,0x013F); //设置操作窗口的Y轴结束行
;;;2253   		LCD_WriteReg(0x60,0x2700); //Driver Output Control
;;;2254   		//设置屏幕的点数以及扫描的起始行
;;;2255   		LCD_WriteReg(0x61,0x0001); //Driver Output Control
;;;2256   		LCD_WriteReg(0x6A,0x0000); //Vertical Scroll Control
;;;2257   		LCD_WriteReg(0x80,0x0000); //Display Position C Partial Display 1
;;;2258   		LCD_WriteReg(0x81,0x0000); //RAM Address Start C Partial Display 1
;;;2259   		LCD_WriteReg(0x82,0x0000); //RAM address End - Partial Display 1
;;;2260   		LCD_WriteReg(0x83,0x0000); //Display Position C Partial Display 2
;;;2261   		LCD_WriteReg(0x84,0x0000); //RAM Address Start C Partial Display 2
;;;2262   		LCD_WriteReg(0x85,0x0000); //RAM address End C Partail Display2
;;;2263   		LCD_WriteReg(0x90,0x0013); //Frame Cycle Control
;;;2264   		LCD_WriteReg(0x92,0x0000);  //Panel Interface Control 2
;;;2265   		LCD_WriteReg(0x93,0x0003); //Panel Interface control 3
;;;2266   		LCD_WriteReg(0x95,0x0110);  //Frame Cycle Control
;;;2267   		LCD_WriteReg(0x07,0x0173);		 
;;;2268   		delay_ms(50);
;;;2269   	}	
;;;2270   	else if(lcddev.id==0x1505)//OK
001d02  f5a051a8          SUB      r1,r0,#0x1500
;;;2271   	{
;;;2272   		// second release on 3/5  ,luminance is acceptable,water wave appear during camera preview
;;;2273           LCD_WriteReg(0x0007,0x0000);
;;;2274           delay_ms(50); 
;;;2275           LCD_WriteReg(0x0012,0x011C);//0x011A   why need to set several times?
;;;2276           LCD_WriteReg(0x00A4,0x0001);//NVM	 
;;;2277           LCD_WriteReg(0x0008,0x000F);
;;;2278           LCD_WriteReg(0x000A,0x0008);
;;;2279           LCD_WriteReg(0x000D,0x0008);	    
;;;2280     		//伽马校正
;;;2281           LCD_WriteReg(0x0030,0x0707);
;;;2282           LCD_WriteReg(0x0031,0x0007); //0x0707
;;;2283           LCD_WriteReg(0x0032,0x0603); 
;;;2284           LCD_WriteReg(0x0033,0x0700); 
;;;2285           LCD_WriteReg(0x0034,0x0202); 
;;;2286           LCD_WriteReg(0x0035,0x0002); //?0x0606
;;;2287           LCD_WriteReg(0x0036,0x1F0F);
;;;2288           LCD_WriteReg(0x0037,0x0707); //0x0f0f  0x0105
;;;2289           LCD_WriteReg(0x0038,0x0000); 
;;;2290           LCD_WriteReg(0x0039,0x0000); 
;;;2291           LCD_WriteReg(0x003A,0x0707); 
;;;2292           LCD_WriteReg(0x003B,0x0000); //0x0303
;;;2293           LCD_WriteReg(0x003C,0x0007); //?0x0707
;;;2294           LCD_WriteReg(0x003D,0x0000); //0x1313//0x1f08
;;;2295           delay_ms(50); 
;;;2296           LCD_WriteReg(0x0007,0x0001);
;;;2297           LCD_WriteReg(0x0017,0x0001);//开启电源
;;;2298           delay_ms(50); 
;;;2299     		//电源配置
;;;2300           LCD_WriteReg(0x0010,0x17A0); 
;;;2301           LCD_WriteReg(0x0011,0x0217);//reference voltage VC[2:0]   Vciout = 1.00*Vcivl
;;;2302           LCD_WriteReg(0x0012,0x011E);//0x011c  //Vreg1out = Vcilvl*1.80   is it the same as Vgama1out ?
;;;2303           LCD_WriteReg(0x0013,0x0F00);//VDV[4:0]-->VCOM Amplitude VcomL = VcomH - Vcom Ampl
;;;2304           LCD_WriteReg(0x002A,0x0000);  
;;;2305           LCD_WriteReg(0x0029,0x000A);//0x0001F  Vcomh = VCM1[4:0]*Vreg1out    gate source voltage??
;;;2306           LCD_WriteReg(0x0012,0x013E);// 0x013C  power supply on
;;;2307           //Coordinates Control//
;;;2308           LCD_WriteReg(0x0050,0x0000);//0x0e00
;;;2309           LCD_WriteReg(0x0051,0x00EF); 
;;;2310           LCD_WriteReg(0x0052,0x0000); 
;;;2311           LCD_WriteReg(0x0053,0x013F); 
;;;2312       	//Pannel Image Control//
;;;2313           LCD_WriteReg(0x0060,0x2700); 
;;;2314           LCD_WriteReg(0x0061,0x0001); 
;;;2315           LCD_WriteReg(0x006A,0x0000); 
;;;2316           LCD_WriteReg(0x0080,0x0000); 
;;;2317       	//Partial Image Control//
;;;2318           LCD_WriteReg(0x0081,0x0000); 
;;;2319           LCD_WriteReg(0x0082,0x0000); 
;;;2320           LCD_WriteReg(0x0083,0x0000); 
;;;2321           LCD_WriteReg(0x0084,0x0000); 
;;;2322           LCD_WriteReg(0x0085,0x0000); 
;;;2323     		//Panel Interface Control//
;;;2324           LCD_WriteReg(0x0090,0x0013);//0x0010 frenqucy
;;;2325           LCD_WriteReg(0x0092,0x0300); 
001d06  f44f7b40          MOV      r11,#0x300
001d0a  3905              SUBS     r1,#5                 ;2270
001d0c  d072              BEQ      |L13.7668|
;;;2326           LCD_WriteReg(0x0093,0x0005); 
;;;2327           LCD_WriteReg(0x0095,0x0000); 
;;;2328           LCD_WriteReg(0x0097,0x0000); 
;;;2329           LCD_WriteReg(0x0098,0x0000); 
;;;2330     
;;;2331           LCD_WriteReg(0x0001,0x0100); 
;;;2332           LCD_WriteReg(0x0002,0x0700); 
;;;2333           LCD_WriteReg(0x0003,0x1038);//扫描方向 上->下  左->右 
;;;2334           LCD_WriteReg(0x0004,0x0000); 
;;;2335           LCD_WriteReg(0x000C,0x0000); 
;;;2336           LCD_WriteReg(0x000F,0x0000); 
;;;2337           LCD_WriteReg(0x0020,0x0000); 
;;;2338           LCD_WriteReg(0x0021,0x0000); 
;;;2339           LCD_WriteReg(0x0007,0x0021); 
;;;2340           delay_ms(20);
;;;2341           LCD_WriteReg(0x0007,0x0061); 
;;;2342           delay_ms(20);
;;;2343           LCD_WriteReg(0x0007,0x0173); 
;;;2344           delay_ms(20);
;;;2345   	}else if(lcddev.id==0xB505)
001d0e  f5b14120          SUBS     r1,r1,#0xa000
001d12  d070              BEQ      |L13.7670|
;;;2346   	{
;;;2347   		LCD_WriteReg(0x0000,0x0000);
;;;2348   		LCD_WriteReg(0x0000,0x0000);
;;;2349   		LCD_WriteReg(0x0000,0x0000);
;;;2350   		LCD_WriteReg(0x0000,0x0000);
;;;2351   		
;;;2352   		LCD_WriteReg(0x00a4,0x0001);
;;;2353   		delay_ms(20);		  
;;;2354   		LCD_WriteReg(0x0060,0x2700);
;;;2355   		LCD_WriteReg(0x0008,0x0202);
;;;2356   		
;;;2357   		LCD_WriteReg(0x0030,0x0214);
;;;2358   		LCD_WriteReg(0x0031,0x3715);
;;;2359   		LCD_WriteReg(0x0032,0x0604);
;;;2360   		LCD_WriteReg(0x0033,0x0e16);
;;;2361   		LCD_WriteReg(0x0034,0x2211);
;;;2362   		LCD_WriteReg(0x0035,0x1500);
;;;2363   		LCD_WriteReg(0x0036,0x8507);
;;;2364   		LCD_WriteReg(0x0037,0x1407);
;;;2365   		LCD_WriteReg(0x0038,0x1403);
;;;2366   		LCD_WriteReg(0x0039,0x0020);
;;;2367   		
;;;2368   		LCD_WriteReg(0x0090,0x001a);
;;;2369   		LCD_WriteReg(0x0010,0x0000);
;;;2370   		LCD_WriteReg(0x0011,0x0007);
;;;2371   		LCD_WriteReg(0x0012,0x0000);
;;;2372   		LCD_WriteReg(0x0013,0x0000);
;;;2373   		delay_ms(20);
;;;2374   		
;;;2375   		LCD_WriteReg(0x0010,0x0730);
;;;2376   		LCD_WriteReg(0x0011,0x0137);
;;;2377   		delay_ms(20);
;;;2378   		
;;;2379   		LCD_WriteReg(0x0012,0x01b8);
;;;2380   		delay_ms(20);
;;;2381   		
;;;2382   		LCD_WriteReg(0x0013,0x0f00);
;;;2383   		LCD_WriteReg(0x002a,0x0080);
;;;2384   		LCD_WriteReg(0x0029,0x0048);
;;;2385   		delay_ms(20);
;;;2386   		
;;;2387   		LCD_WriteReg(0x0001,0x0100);
;;;2388   		LCD_WriteReg(0x0002,0x0700);
;;;2389           LCD_WriteReg(0x0003,0x1038);//扫描方向 上->下  左->右 
;;;2390   		LCD_WriteReg(0x0008,0x0202);
;;;2391   		LCD_WriteReg(0x000a,0x0000);
;;;2392   		LCD_WriteReg(0x000c,0x0000);
;;;2393   		LCD_WriteReg(0x000d,0x0000);
;;;2394   		LCD_WriteReg(0x000e,0x0030);
;;;2395   		LCD_WriteReg(0x0050,0x0000);
;;;2396   		LCD_WriteReg(0x0051,0x00ef);
;;;2397   		LCD_WriteReg(0x0052,0x0000);
;;;2398   		LCD_WriteReg(0x0053,0x013f);
;;;2399   		LCD_WriteReg(0x0060,0x2700);
;;;2400   		LCD_WriteReg(0x0061,0x0001);
;;;2401   		LCD_WriteReg(0x006a,0x0000);
;;;2402   		//LCD_WriteReg(0x0080,0x0000);
;;;2403   		//LCD_WriteReg(0x0081,0x0000);
;;;2404   		LCD_WriteReg(0x0090,0X0011);
;;;2405   		LCD_WriteReg(0x0092,0x0600);
;;;2406   		LCD_WriteReg(0x0093,0x0402);
;;;2407   		LCD_WriteReg(0x0094,0x0002);
;;;2408   		delay_ms(20);
;;;2409   		
;;;2410   		LCD_WriteReg(0x0007,0x0001);
;;;2411   		delay_ms(20);
;;;2412   		LCD_WriteReg(0x0007,0x0061);
;;;2413   		LCD_WriteReg(0x0007,0x0173);
;;;2414   		
;;;2415   		LCD_WriteReg(0x0020,0x0000);
;;;2416   		LCD_WriteReg(0x0021,0x0000);	  
;;;2417   		LCD_WriteReg(0x00,0x22);  
;;;2418   	}else if(lcddev.id==0xC505)
001d14  f5b15180          SUBS     r1,r1,#0x1000
001d18  d06e              BEQ      |L13.7672|
;;;2419   	{
;;;2420   		LCD_WriteReg(0x0000,0x0000);
;;;2421   		LCD_WriteReg(0x0000,0x0000);
;;;2422   		delay_ms(20);		  
;;;2423   		LCD_WriteReg(0x0000,0x0000);
;;;2424   		LCD_WriteReg(0x0000,0x0000);
;;;2425   		LCD_WriteReg(0x0000,0x0000);
;;;2426   		LCD_WriteReg(0x0000,0x0000);
;;;2427    		LCD_WriteReg(0x00a4,0x0001);
;;;2428   		delay_ms(20);		  
;;;2429   		LCD_WriteReg(0x0060,0x2700);
;;;2430   		LCD_WriteReg(0x0008,0x0806);
;;;2431   		
;;;2432   		LCD_WriteReg(0x0030,0x0703);//gamma setting
;;;2433   		LCD_WriteReg(0x0031,0x0001);
;;;2434   		LCD_WriteReg(0x0032,0x0004);
;;;2435   		LCD_WriteReg(0x0033,0x0102);
;;;2436   		LCD_WriteReg(0x0034,0x0300);
;;;2437   		LCD_WriteReg(0x0035,0x0103);
;;;2438   		LCD_WriteReg(0x0036,0x001F);
;;;2439   		LCD_WriteReg(0x0037,0x0703);
;;;2440   		LCD_WriteReg(0x0038,0x0001);
;;;2441   		LCD_WriteReg(0x0039,0x0004);
;;;2442   		
;;;2443   		
;;;2444   		
;;;2445   		LCD_WriteReg(0x0090, 0x0015);	//80Hz
;;;2446   		LCD_WriteReg(0x0010, 0X0410);	//BT,AP
;;;2447   		LCD_WriteReg(0x0011,0x0247);	//DC1,DC0,VC
;;;2448   		LCD_WriteReg(0x0012, 0x01BC);
;;;2449   		LCD_WriteReg(0x0013, 0x0e00);
;;;2450   		delay_ms(120);
;;;2451   		LCD_WriteReg(0x0001, 0x0100);
;;;2452   		LCD_WriteReg(0x0002, 0x0200);
;;;2453   		LCD_WriteReg(0x0003, 0x1030);
;;;2454   		
;;;2455   		LCD_WriteReg(0x000A, 0x0008);
;;;2456   		LCD_WriteReg(0x000C, 0x0000);
;;;2457   		
;;;2458   		LCD_WriteReg(0x000E, 0x0020);
;;;2459   		LCD_WriteReg(0x000F, 0x0000);
;;;2460   		LCD_WriteReg(0x0020, 0x0000);	//H Start
;;;2461   		LCD_WriteReg(0x0021, 0x0000);	//V Start
;;;2462   		LCD_WriteReg(0x002A,0x003D);	//vcom2
;;;2463   		delay_ms(20);
;;;2464   		LCD_WriteReg(0x0029, 0x002d);
;;;2465   		LCD_WriteReg(0x0050, 0x0000);
;;;2466   		LCD_WriteReg(0x0051, 0xD0EF);
;;;2467   		LCD_WriteReg(0x0052, 0x0000);
;;;2468   		LCD_WriteReg(0x0053, 0x013F);
;;;2469   		LCD_WriteReg(0x0061, 0x0000);
;;;2470   		LCD_WriteReg(0x006A, 0x0000);
;;;2471   		LCD_WriteReg(0x0092,0x0300); 
;;;2472    
;;;2473    		LCD_WriteReg(0x0093, 0x0005);
;;;2474   		LCD_WriteReg(0x0007, 0x0100);
;;;2475   	}else if(lcddev.id==0x4531)//OK |/|/|
001d1a  f5a0418a          SUB      r1,r0,#0x4500
001d1e  3931              SUBS     r1,r1,#0x31
001d20  d06b              BEQ      |L13.7674|
;;;2476   	{
;;;2477   		LCD_WriteReg(0X00,0X0001);   
;;;2478   		delay_ms(10);   
;;;2479   		LCD_WriteReg(0X10,0X1628);   
;;;2480   		LCD_WriteReg(0X12,0X000e);//0x0006    
;;;2481   		LCD_WriteReg(0X13,0X0A39);   
;;;2482   		delay_ms(10);   
;;;2483   		LCD_WriteReg(0X11,0X0040);   
;;;2484   		LCD_WriteReg(0X15,0X0050);   
;;;2485   		delay_ms(10);   
;;;2486   		LCD_WriteReg(0X12,0X001e);//16    
;;;2487   		delay_ms(10);   
;;;2488   		LCD_WriteReg(0X10,0X1620);   
;;;2489   		LCD_WriteReg(0X13,0X2A39);   
;;;2490   		delay_ms(10);   
;;;2491   		LCD_WriteReg(0X01,0X0100);   
;;;2492   		LCD_WriteReg(0X02,0X0300);   
;;;2493   		LCD_WriteReg(0X03,0X1038);//改变方向的   
;;;2494   		LCD_WriteReg(0X08,0X0202);   
;;;2495   		LCD_WriteReg(0X0A,0X0008);   
;;;2496   		LCD_WriteReg(0X30,0X0000);   
;;;2497   		LCD_WriteReg(0X31,0X0402);   
;;;2498   		LCD_WriteReg(0X32,0X0106);   
;;;2499   		LCD_WriteReg(0X33,0X0503);   
;;;2500   		LCD_WriteReg(0X34,0X0104);   
;;;2501   		LCD_WriteReg(0X35,0X0301);   
;;;2502   		LCD_WriteReg(0X36,0X0707);   
;;;2503   		LCD_WriteReg(0X37,0X0305);   
;;;2504   		LCD_WriteReg(0X38,0X0208);   
;;;2505   		LCD_WriteReg(0X39,0X0F0B);   
;;;2506   		LCD_WriteReg(0X41,0X0002);   
;;;2507   		LCD_WriteReg(0X60,0X2700);   
;;;2508   		LCD_WriteReg(0X61,0X0001);   
;;;2509   		LCD_WriteReg(0X90,0X0210);   
;;;2510   		LCD_WriteReg(0X92,0X010A);   
;;;2511   		LCD_WriteReg(0X93,0X0004);   
;;;2512   		LCD_WriteReg(0XA0,0X0100);   
;;;2513   		LCD_WriteReg(0X07,0X0001);   
;;;2514   		LCD_WriteReg(0X07,0X0021);   
;;;2515   		LCD_WriteReg(0X07,0X0023);   
;;;2516   		LCD_WriteReg(0X07,0X0033);   
;;;2517   		LCD_WriteReg(0X07,0X0133);   
;;;2518   		LCD_WriteReg(0XA0,0X0000); 
;;;2519   	}else if(lcddev.id==0x4535)
001d22  1f09              SUBS     r1,r1,#4
001d24  d06a              BEQ      |L13.7676|
;;;2520   	{			      
;;;2521   		LCD_WriteReg(0X15,0X0030);   
;;;2522   		LCD_WriteReg(0X9A,0X0010);   
;;;2523    		LCD_WriteReg(0X11,0X0020);   
;;;2524    		LCD_WriteReg(0X10,0X3428);   
;;;2525   		LCD_WriteReg(0X12,0X0002);//16    
;;;2526    		LCD_WriteReg(0X13,0X1038);   
;;;2527   		delay_ms(40);   
;;;2528   		LCD_WriteReg(0X12,0X0012);//16    
;;;2529   		delay_ms(40);   
;;;2530     		LCD_WriteReg(0X10,0X3420);   
;;;2531    		LCD_WriteReg(0X13,0X3038);   
;;;2532   		delay_ms(70);   
;;;2533   		LCD_WriteReg(0X30,0X0000);   
;;;2534   		LCD_WriteReg(0X31,0X0402);   
;;;2535   		LCD_WriteReg(0X32,0X0307);   
;;;2536   		LCD_WriteReg(0X33,0X0304);   
;;;2537   		LCD_WriteReg(0X34,0X0004);   
;;;2538   		LCD_WriteReg(0X35,0X0401);   
;;;2539   		LCD_WriteReg(0X36,0X0707);   
;;;2540   		LCD_WriteReg(0X37,0X0305);   
;;;2541   		LCD_WriteReg(0X38,0X0610);   
;;;2542   		LCD_WriteReg(0X39,0X0610); 
;;;2543   		  
;;;2544   		LCD_WriteReg(0X01,0X0100);   
;;;2545   		LCD_WriteReg(0X02,0X0300);   
;;;2546   		LCD_WriteReg(0X03,0X1030);//改变方向的   
;;;2547   		LCD_WriteReg(0X08,0X0808);   
;;;2548   		LCD_WriteReg(0X0A,0X0008);   
;;;2549    		LCD_WriteReg(0X60,0X2700);   
;;;2550   		LCD_WriteReg(0X61,0X0001);   
;;;2551   		LCD_WriteReg(0X90,0X013E);   
;;;2552   		LCD_WriteReg(0X92,0X0100);   
;;;2553   		LCD_WriteReg(0X93,0X0100);   
;;;2554    		LCD_WriteReg(0XA0,0X3000);   
;;;2555    		LCD_WriteReg(0XA3,0X0010);   
;;;2556   		LCD_WriteReg(0X07,0X0001);   
;;;2557   		LCD_WriteReg(0X07,0X0021);   
;;;2558   		LCD_WriteReg(0X07,0X0023);   
;;;2559   		LCD_WriteReg(0X07,0X0033);   
;;;2560   		LCD_WriteReg(0X07,0X0133);   
;;;2561   	}else if(lcddev.id==0X1963)
001d26  f5a051c8          SUB      r1,r0,#0x1900
001d2a  3963              SUBS     r1,r1,#0x63
001d2c  d067              BEQ      |L13.7678|
001d2e  e7cf              B        |L13.7376|
                  |L13.7472|
001d30  f64701f0          MOV      r1,#0x78f0            ;1974
001d34  20e5              MOVS     r0,#0xe5              ;1974
001d36  f7fffffe          BL       LCD_WriteReg
001d3a  4631              MOV      r1,r6                 ;1975
001d3c  2001              MOVS     r0,#1                 ;1975
001d3e  f7fffffe          BL       LCD_WriteReg
001d42  4649              MOV      r1,r9                 ;1976
001d44  2002              MOVS     r0,#2                 ;1976
001d46  f7fffffe          BL       LCD_WriteReg
001d4a  f2410130          MOV      r1,#0x1030            ;1977
001d4e  2003              MOVS     r0,#3                 ;1977
001d50  f7fffffe          BL       LCD_WriteReg
001d54  2100              MOVS     r1,#0                 ;1978
001d56  2004              MOVS     r0,#4                 ;1978
001d58  f7fffffe          BL       LCD_WriteReg
001d5c  4651              MOV      r1,r10                ;1979
001d5e  2008              MOVS     r0,#8                 ;1979
001d60  f7fffffe          BL       LCD_WriteReg
001d64  2100              MOVS     r1,#0                 ;1980
001d66  2009              MOVS     r0,#9                 ;1980
001d68  f7fffffe          BL       LCD_WriteReg
001d6c  2100              MOVS     r1,#0                 ;1981
001d6e  200a              MOVS     r0,#0xa               ;1981
001d70  f7fffffe          BL       LCD_WriteReg
001d74  2100              MOVS     r1,#0                 ;1982
001d76  200c              MOVS     r0,#0xc               ;1982
001d78  f7fffffe          BL       LCD_WriteReg
001d7c  2100              MOVS     r1,#0                 ;1983
001d7e  200d              MOVS     r0,#0xd               ;1983
001d80  f7fffffe          BL       LCD_WriteReg
001d84  2100              MOVS     r1,#0                 ;1984
001d86  200f              MOVS     r0,#0xf               ;1984
001d88  f7fffffe          BL       LCD_WriteReg
001d8c  2100              MOVS     r1,#0                 ;1986
001d8e  2010              MOVS     r0,#0x10              ;1986
001d90  f7fffffe          BL       LCD_WriteReg
001d94  2107              MOVS     r1,#7                 ;1987
001d96  2011              MOVS     r0,#0x11              ;1987
001d98  f7fffffe          BL       LCD_WriteReg
001d9c  2100              MOVS     r1,#0                 ;1988
001d9e  2012              MOVS     r0,#0x12              ;1988
001da0  f7fffffe          BL       LCD_WriteReg
001da4  2100              MOVS     r1,#0                 ;1989
001da6  2013              MOVS     r0,#0x13              ;1989
001da8  f7fffffe          BL       LCD_WriteReg
001dac  2100              MOVS     r1,#0                 ;1990
001dae  2007              MOVS     r0,#7                 ;1990
001db0  f7fffffe          BL       LCD_WriteReg
001db4  f2416190          MOV      r1,#0x1690            ;1992
001db8  2010              MOVS     r0,#0x10              ;1992
001dba  f7fffffe          BL       LCD_WriteReg
001dbe  f2402127          MOV      r1,#0x227             ;1993
001dc2  2011              MOVS     r0,#0x11              ;1993
001dc4  f7fffffe          BL       LCD_WriteReg
001dc8  219d              MOVS     r1,#0x9d              ;1996
001dca  2012              MOVS     r0,#0x12              ;1996
001dcc  f7fffffe          BL       LCD_WriteReg
001dd0  f44f51c8          MOV      r1,#0x1900            ;1999
001dd4  2013              MOVS     r0,#0x13              ;1999
001dd6  f7fffffe          BL       LCD_WriteReg
001dda  2125              MOVS     r1,#0x25              ;2002
001ddc  2029              MOVS     r0,#0x29              ;2002
001dde  f7fffffe          BL       LCD_WriteReg
001de2  210d              MOVS     r1,#0xd               ;2003
001de4  202b              MOVS     r0,#0x2b              ;2003
001de6  f7fffffe          BL       LCD_WriteReg
001dea  e009              B        |L13.7680|
                  |L13.7660|
001dec  e077              B        |L13.7902|
                  |L13.7662|
001dee  e133              B        |L13.8280|
                  |L13.7664|
001df0  e1d8              B        |L13.8612|
                  |L13.7666|
001df2  e2ae              B        |L13.9042|
                  |L13.7668|
001df4  e34a              B        |L13.9356|
                  |L13.7670|
001df6  e3fd              B        |L13.9716|
                  |L13.7672|
001df8  e3fd              B        |L13.9718|
                  |L13.7674|
001dfa  e3fd              B        |L13.9720|
                  |L13.7676|
001dfc  e3fd              B        |L13.9722|
                  |L13.7678|
001dfe  e3fd              B        |L13.9724|
                  |L13.7680|
001e00  2107              MOVS     r1,#7                 ;2005
001e02  2030              MOVS     r0,#0x30              ;2005
001e04  f7fffffe          BL       LCD_WriteReg
001e08  f2403103          MOV      r1,#0x303             ;2006
001e0c  2031              MOVS     r0,#0x31              ;2006
001e0e  f7fffffe          BL       LCD_WriteReg
001e12  2103              MOVS     r1,#3                 ;2007
001e14  2032              MOVS     r0,#0x32              ;2007
001e16  f7fffffe          BL       LCD_WriteReg
001e1a  f2402106          MOV      r1,#0x206             ;2008
001e1e  2035              MOVS     r0,#0x35              ;2008
001e20  f7fffffe          BL       LCD_WriteReg
001e24  2108              MOVS     r1,#8                 ;2009
001e26  2036              MOVS     r0,#0x36              ;2009
001e28  f7fffffe          BL       LCD_WriteReg
001e2c  f2404106          MOV      r1,#0x406             ;2010
001e30  2037              MOVS     r0,#0x37              ;2010
001e32  f7fffffe          BL       LCD_WriteReg
001e36  f44f7141          MOV      r1,#0x304             ;2011
001e3a  2038              MOVS     r0,#0x38              ;2011
001e3c  f7fffffe          BL       LCD_WriteReg
001e40  2107              MOVS     r1,#7                 ;2012
001e42  2039              MOVS     r0,#0x39              ;2012
001e44  f7fffffe          BL       LCD_WriteReg
001e48  f2406102          MOV      r1,#0x602             ;2013
001e4c  203c              MOVS     r0,#0x3c              ;2013
001e4e  f7fffffe          BL       LCD_WriteReg
001e52  2108              MOVS     r1,#8                 ;2014
001e54  203d              MOVS     r0,#0x3d              ;2014
001e56  f7fffffe          BL       LCD_WriteReg
001e5a  2100              MOVS     r1,#0                 ;2016
001e5c  2050              MOVS     r0,#0x50              ;2016
001e5e  f7fffffe          BL       LCD_WriteReg
001e62  21ef              MOVS     r1,#0xef              ;2017
001e64  2051              MOVS     r0,#0x51              ;2017
001e66  f7fffffe          BL       LCD_WriteReg
001e6a  2100              MOVS     r1,#0                 ;2018
001e6c  2052              MOVS     r0,#0x52              ;2018
001e6e  f7fffffe          BL       LCD_WriteReg
001e72  f240113f          MOV      r1,#0x13f             ;2019
001e76  2053              MOVS     r0,#0x53              ;2019
001e78  f7fffffe          BL       LCD_WriteReg
001e7c  4659              MOV      r1,r11                ;2020
001e7e  2060              MOVS     r0,#0x60              ;2020
001e80  f7fffffe          BL       LCD_WriteReg
001e84  2101              MOVS     r1,#1                 ;2021
001e86  2061              MOVS     r0,#0x61              ;2021
001e88  f7fffffe          BL       LCD_WriteReg
001e8c  2100              MOVS     r1,#0                 ;2022
001e8e  206a              MOVS     r0,#0x6a              ;2022
001e90  f7fffffe          BL       LCD_WriteReg
001e94  2100              MOVS     r1,#0                 ;2024
001e96  2080              MOVS     r0,#0x80              ;2024
001e98  f7fffffe          BL       LCD_WriteReg
001e9c  2100              MOVS     r1,#0                 ;2025
001e9e  2081              MOVS     r0,#0x81              ;2025
001ea0  f7fffffe          BL       LCD_WriteReg
001ea4  2100              MOVS     r1,#0                 ;2026
001ea6  2082              MOVS     r0,#0x82              ;2026
001ea8  f7fffffe          BL       LCD_WriteReg
001eac  2100              MOVS     r1,#0                 ;2027
001eae  2083              MOVS     r0,#0x83              ;2027
001eb0  f7fffffe          BL       LCD_WriteReg
001eb4  2100              MOVS     r1,#0                 ;2028
001eb6  2084              MOVS     r0,#0x84              ;2028
001eb8  f7fffffe          BL       LCD_WriteReg
001ebc  2100              MOVS     r1,#0                 ;2029
001ebe  2085              MOVS     r0,#0x85              ;2029
001ec0  f7fffffe          BL       LCD_WriteReg
001ec4  2110              MOVS     r1,#0x10              ;2031
001ec6  2090              MOVS     r0,#0x90              ;2031
001ec8  f7fffffe          BL       LCD_WriteReg
001ecc  f44f61c0          MOV      r1,#0x600             ;2032
001ed0  2092              MOVS     r0,#0x92              ;2032
001ed2  f7fffffe          BL       LCD_WriteReg
001ed6  f2401133          MOV      r1,#0x133             ;2034
001eda  2007              MOVS     r0,#7                 ;2034
001edc  e3fd              B        |L13.9946|
                  |L13.7902|
001ede  f241018f          MOV      r1,#0x108f            ;2038
001ee2  20ec              MOVS     r0,#0xec              ;2038
001ee4  f7fffffe          BL       LCD_WriteReg
001ee8  f2412134          MOV      r1,#0x1234            ;2039
001eec  20ef              MOVS     r0,#0xef              ;2039
001eee  f7fffffe          BL       LCD_WriteReg
001ef2  4631              MOV      r1,r6                 ;2042
001ef4  2001              MOVS     r0,#1                 ;2042
001ef6  f7fffffe          BL       LCD_WriteReg
001efa  4649              MOV      r1,r9                 ;2043
001efc  2002              MOVS     r0,#2                 ;2043
001efe  f7fffffe          BL       LCD_WriteReg
001f02  f2410130          MOV      r1,#0x1030            ;2056
001f06  2003              MOVS     r0,#3                 ;2056
001f08  f7fffffe          BL       LCD_WriteReg
001f0c  2100              MOVS     r1,#0                 ;2057
001f0e  2004              MOVS     r0,#4                 ;2057
001f10  f7fffffe          BL       LCD_WriteReg
001f14  4651              MOV      r1,r10                ;2058
001f16  2008              MOVS     r0,#8                 ;2058
001f18  f7fffffe          BL       LCD_WriteReg
001f1c  2100              MOVS     r1,#0                 ;2059
001f1e  2009              MOVS     r0,#9                 ;2059
001f20  f7fffffe          BL       LCD_WriteReg
001f24  2100              MOVS     r1,#0                 ;2060
001f26  200a              MOVS     r0,#0xa               ;2060
001f28  f7fffffe          BL       LCD_WriteReg
001f2c  2101              MOVS     r1,#1                 ;2061
001f2e  200c              MOVS     r0,#0xc               ;2061
001f30  f7fffffe          BL       LCD_WriteReg
001f34  2100              MOVS     r1,#0                 ;2062
001f36  200d              MOVS     r0,#0xd               ;2062
001f38  f7fffffe          BL       LCD_WriteReg
001f3c  2100              MOVS     r1,#0                 ;2063
001f3e  200f              MOVS     r0,#0xf               ;2063
001f40  f7fffffe          BL       LCD_WriteReg
001f44  2100              MOVS     r1,#0                 ;2065
001f46  2010              MOVS     r0,#0x10              ;2065
001f48  f7fffffe          BL       LCD_WriteReg
001f4c  2107              MOVS     r1,#7                 ;2066
001f4e  2011              MOVS     r0,#0x11              ;2066
001f50  f7fffffe          BL       LCD_WriteReg
001f54  2100              MOVS     r1,#0                 ;2067
001f56  2012              MOVS     r0,#0x12              ;2067
001f58  f7fffffe          BL       LCD_WriteReg
001f5c  2100              MOVS     r1,#0                 ;2068
001f5e  2013              MOVS     r0,#0x13              ;2068
001f60  f7fffffe          BL       LCD_WriteReg
001f64  2101              MOVS     r1,#1                 ;2069
001f66  2007              MOVS     r0,#7                 ;2069
001f68  f7fffffe          BL       LCD_WriteReg
001f6c  2032              MOVS     r0,#0x32              ;2070
001f6e  f7fffffe          BL       delay_ms
001f72  f2414190          MOV      r1,#0x1490            ;2071
001f76  2010              MOVS     r0,#0x10              ;2071
001f78  f7fffffe          BL       LCD_WriteReg
001f7c  f2402127          MOV      r1,#0x227             ;2072
001f80  2011              MOVS     r0,#0x11              ;2072
001f82  f7fffffe          BL       LCD_WriteReg
001f86  2032              MOVS     r0,#0x32              ;2073
001f88  f7fffffe          BL       delay_ms
001f8c  218a              MOVS     r1,#0x8a              ;2074
001f8e  2012              MOVS     r0,#0x12              ;2074
001f90  f7fffffe          BL       LCD_WriteReg
001f94  2032              MOVS     r0,#0x32              ;2075
001f96  f7fffffe          BL       delay_ms
001f9a  f44f51d0          MOV      r1,#0x1a00            ;2076
001f9e  2013              MOVS     r0,#0x13              ;2076
001fa0  f7fffffe          BL       LCD_WriteReg
001fa4  2106              MOVS     r1,#6                 ;2077
001fa6  2029              MOVS     r0,#0x29              ;2077
001fa8  f7fffffe          BL       LCD_WriteReg
001fac  210d              MOVS     r1,#0xd               ;2078
001fae  202b              MOVS     r0,#0x2b              ;2078
001fb0  f7fffffe          BL       LCD_WriteReg
001fb4  2032              MOVS     r0,#0x32              ;2079
001fb6  f7fffffe          BL       delay_ms
001fba  2100              MOVS     r1,#0                 ;2080
001fbc  2020              MOVS     r0,#0x20              ;2080
001fbe  f7fffffe          BL       LCD_WriteReg
001fc2  2100              MOVS     r1,#0                 ;2081
001fc4  2021              MOVS     r0,#0x21              ;2081
001fc6  f7fffffe          BL       LCD_WriteReg
001fca  2032              MOVS     r0,#0x32              ;2082
001fcc  f7fffffe          BL       delay_ms
001fd0  2100              MOVS     r1,#0                 ;2084
001fd2  2030              MOVS     r0,#0x30              ;2084
001fd4  f7fffffe          BL       LCD_WriteReg
001fd8  f2406104          MOV      r1,#0x604             ;2085
001fdc  2031              MOVS     r0,#0x31              ;2085
001fde  f7fffffe          BL       LCD_WriteReg
001fe2  f2403105          MOV      r1,#0x305             ;2086
001fe6  2032              MOVS     r0,#0x32              ;2086
001fe8  f7fffffe          BL       LCD_WriteReg
001fec  2100              MOVS     r1,#0                 ;2087
001fee  2035              MOVS     r0,#0x35              ;2087
001ff0  f7fffffe          BL       LCD_WriteReg
001ff4  f6404109          MOV      r1,#0xc09             ;2088
001ff8  2036              MOVS     r0,#0x36              ;2088
001ffa  f7fffffe          BL       LCD_WriteReg
001ffe  f44f7101          MOV      r1,#0x204             ;2089
002002  2037              MOVS     r0,#0x37              ;2089
002004  f7fffffe          BL       LCD_WriteReg
002008  f2403101          MOV      r1,#0x301             ;2090
00200c  2038              MOVS     r0,#0x38              ;2090
00200e  f7fffffe          BL       LCD_WriteReg
002012  4639              MOV      r1,r7                 ;2091
002014  2039              MOVS     r0,#0x39              ;2091
002016  f7fffffe          BL       LCD_WriteReg
00201a  2100              MOVS     r1,#0                 ;2092
00201c  203c              MOVS     r0,#0x3c              ;2092
00201e  f7fffffe          BL       LCD_WriteReg
002022  f640210a          MOV      r1,#0xa0a             ;2093
002026  203d              MOVS     r0,#0x3d              ;2093
002028  f7fffffe          BL       LCD_WriteReg
00202c  2032              MOVS     r0,#0x32              ;2094
00202e  f7fffffe          BL       delay_ms
002032  2100              MOVS     r1,#0                 ;2095
002034  2050              MOVS     r0,#0x50              ;2095
002036  f7fffffe          BL       LCD_WriteReg
00203a  21ef              MOVS     r1,#0xef              ;2096
00203c  2051              MOVS     r0,#0x51              ;2096
00203e  f7fffffe          BL       LCD_WriteReg
002042  2100              MOVS     r1,#0                 ;2097
002044  2052              MOVS     r0,#0x52              ;2097
002046  f7fffffe          BL       LCD_WriteReg
00204a  f240113f          MOV      r1,#0x13f             ;2098
00204e  2053              MOVS     r0,#0x53              ;2098
002050  f7fffffe          BL       LCD_WriteReg
002054  4659              MOV      r1,r11                ;2100
002056  e151              B        |L13.8956|
                  |L13.8280|
002058  2100              MOVS     r1,#0                 ;2116
00205a  4608              MOV      r0,r1                 ;2116
00205c  f7fffffe          BL       LCD_WriteReg
002060  4631              MOV      r1,r6                 ;2117
002062  2001              MOVS     r0,#1                 ;2117
002064  f7fffffe          BL       LCD_WriteReg
002068  4649              MOV      r1,r9                 ;2118
00206a  2002              MOVS     r0,#2                 ;2118
00206c  f7fffffe          BL       LCD_WriteReg
002070  f2410130          MOV      r1,#0x1030            ;2119
002074  2003              MOVS     r0,#3                 ;2119
002076  f7fffffe          BL       LCD_WriteReg
00207a  2100              MOVS     r1,#0                 ;2122
00207c  2004              MOVS     r0,#4                 ;2122
00207e  f7fffffe          BL       LCD_WriteReg
002082  4651              MOV      r1,r10                ;2123
002084  2008              MOVS     r0,#8                 ;2123
002086  f7fffffe          BL       LCD_WriteReg
00208a  2100              MOVS     r1,#0                 ;2124
00208c  2009              MOVS     r0,#9                 ;2124
00208e  f7fffffe          BL       LCD_WriteReg
002092  2100              MOVS     r1,#0                 ;2125
002094  200a              MOVS     r0,#0xa               ;2125
002096  f7fffffe          BL       LCD_WriteReg
00209a  2101              MOVS     r1,#1                 ;2126
00209c  200c              MOVS     r0,#0xc               ;2126
00209e  f7fffffe          BL       LCD_WriteReg
0020a2  2100              MOVS     r1,#0                 ;2127
0020a4  200d              MOVS     r0,#0xd               ;2127
0020a6  f7fffffe          BL       LCD_WriteReg
0020aa  2100              MOVS     r1,#0                 ;2128
0020ac  200f              MOVS     r0,#0xf               ;2128
0020ae  f7fffffe          BL       LCD_WriteReg
0020b2  2032              MOVS     r0,#0x32              ;2129
0020b4  f7fffffe          BL       delay_ms
0020b8  f2401101          MOV      r1,#0x101             ;2130
0020bc  2007              MOVS     r0,#7                 ;2130
0020be  f7fffffe          BL       LCD_WriteReg
0020c2  2032              MOVS     r0,#0x32              ;2131
0020c4  f7fffffe          BL       delay_ms
0020c8  f44f5186          MOV      r1,#0x10c0            ;2132
0020cc  2010              MOVS     r0,#0x10              ;2132
0020ce  f7fffffe          BL       LCD_WriteReg
0020d2  2107              MOVS     r1,#7                 ;2133
0020d4  2011              MOVS     r0,#0x11              ;2133
0020d6  f7fffffe          BL       LCD_WriteReg
0020da  465b              MOV      r3,r11                ;2134
0020dc  4659              MOV      r1,r11                ;2134
0020de  2012              MOVS     r0,#0x12              ;2134
0020e0  f7fffffe          BL       LCD_WriteReg
0020e4  f44f6130          MOV      r1,#0xb00             ;2135
0020e8  2013              MOVS     r0,#0x13              ;2135
0020ea  f7fffffe          BL       LCD_WriteReg
0020ee  2100              MOVS     r1,#0                 ;2136
0020f0  2029              MOVS     r0,#0x29              ;2136
0020f2  f7fffffe          BL       LCD_WriteReg
0020f6  f2440110          MOV      r1,#0x4010            ;2138
0020fa  202b              MOVS     r0,#0x2b              ;2138
0020fc  f7fffffe          BL       LCD_WriteReg
002100  2100              MOVS     r1,#0                 ;2139
002102  2050              MOVS     r0,#0x50              ;2139
002104  f7fffffe          BL       LCD_WriteReg
002108  21ef              MOVS     r1,#0xef              ;2141
00210a  2051              MOVS     r0,#0x51              ;2141
00210c  f7fffffe          BL       LCD_WriteReg
002110  2100              MOVS     r1,#0                 ;2142
002112  2052              MOVS     r0,#0x52              ;2142
002114  f7fffffe          BL       LCD_WriteReg
002118  f240113f          MOV      r1,#0x13f             ;2143
00211c  2053              MOVS     r0,#0x53              ;2143
00211e  f7fffffe          BL       LCD_WriteReg
002122  f44f511c          MOV      r1,#0x2700            ;2145
002126  2060              MOVS     r0,#0x60              ;2145
002128  f7fffffe          BL       LCD_WriteReg
00212c  2101              MOVS     r1,#1                 ;2146
00212e  2061              MOVS     r0,#0x61              ;2146
002130  f7fffffe          BL       LCD_WriteReg
002134  2100              MOVS     r1,#0                 ;2147
002136  206a              MOVS     r0,#0x6a              ;2147
002138  f7fffffe          BL       LCD_WriteReg
00213c  2100              MOVS     r1,#0                 ;2149
00213e  2080              MOVS     r0,#0x80              ;2149
002140  f7fffffe          BL       LCD_WriteReg
002144  2100              MOVS     r1,#0                 ;2150
002146  2081              MOVS     r0,#0x81              ;2150
002148  f7fffffe          BL       LCD_WriteReg
00214c  2100              MOVS     r1,#0                 ;2151
00214e  2082              MOVS     r0,#0x82              ;2151
002150  f7fffffe          BL       LCD_WriteReg
002154  2100              MOVS     r1,#0                 ;2152
002156  2083              MOVS     r0,#0x83              ;2152
002158  f7fffffe          BL       LCD_WriteReg
00215c  2100              MOVS     r1,#0                 ;2153
00215e  2084              MOVS     r0,#0x84              ;2153
002160  f7fffffe          BL       LCD_WriteReg
002164  2100              MOVS     r1,#0                 ;2154
002166  2085              MOVS     r0,#0x85              ;2154
002168  f7fffffe          BL       LCD_WriteReg
00216c  2110              MOVS     r1,#0x10              ;2156
00216e  2090              MOVS     r0,#0x90              ;2156
002170  f7fffffe          BL       LCD_WriteReg
002174  2100              MOVS     r1,#0                 ;2157
002176  2092              MOVS     r0,#0x92              ;2157
002178  f7fffffe          BL       LCD_WriteReg
00217c  2101              MOVS     r1,#1                 ;2158
00217e  2093              MOVS     r0,#0x93              ;2158
002180  f7fffffe          BL       LCD_WriteReg
002184  4619              MOV      r1,r3                 ;2159
002186  2095              MOVS     r0,#0x95              ;2159
002188  f7fffffe          BL       LCD_WriteReg
00218c  2100              MOVS     r1,#0                 ;2160
00218e  2097              MOVS     r0,#0x97              ;2160
002190  f7fffffe          BL       LCD_WriteReg
002194  2100              MOVS     r1,#0                 ;2161
002196  2098              MOVS     r0,#0x98              ;2161
002198  f7fffffe          BL       LCD_WriteReg
00219c  f2401173          MOV      r1,#0x173             ;2162
                  |L13.8608|
0021a0  2007              MOVS     r0,#7                 ;2113
0021a2  e385              B        |L13.10416|
                  |L13.8612|
0021a4  f2410114          MOV      r1,#0x1014            ;2165
0021a8  20e7              MOVS     r0,#0xe7              ;2165
0021aa  f7fffffe          BL       LCD_WriteReg
0021ae  4631              MOV      r1,r6                 ;2166
0021b0  2001              MOVS     r0,#1                 ;2166
0021b2  f7fffffe          BL       LCD_WriteReg
0021b6  f44f7100          MOV      r1,#0x200             ;2167
0021ba  2002              MOVS     r0,#2                 ;2167
0021bc  f7fffffe          BL       LCD_WriteReg
0021c0  f2410138          MOV      r1,#0x1038            ;2168
0021c4  2003              MOVS     r0,#3                 ;2168
0021c6  f7fffffe          BL       LCD_WriteReg
0021ca  4651              MOV      r1,r10                ;2170
0021cc  2008              MOVS     r0,#8                 ;2170
0021ce  f7fffffe          BL       LCD_WriteReg
0021d2  2100              MOVS     r1,#0                 ;2171
0021d4  2009              MOVS     r0,#9                 ;2171
0021d6  f7fffffe          BL       LCD_WriteReg
0021da  2100              MOVS     r1,#0                 ;2172
0021dc  200a              MOVS     r0,#0xa               ;2172
0021de  f7fffffe          BL       LCD_WriteReg
0021e2  2100              MOVS     r1,#0                 ;2173
0021e4  200c              MOVS     r0,#0xc               ;2173
0021e6  f7fffffe          BL       LCD_WriteReg
0021ea  2100              MOVS     r1,#0                 ;2174
0021ec  200d              MOVS     r0,#0xd               ;2174
0021ee  f7fffffe          BL       LCD_WriteReg
0021f2  2100              MOVS     r1,#0                 ;2175
0021f4  200f              MOVS     r0,#0xf               ;2175
0021f6  f7fffffe          BL       LCD_WriteReg
0021fa  2100              MOVS     r1,#0                 ;2177
0021fc  2010              MOVS     r0,#0x10              ;2177
0021fe  f7fffffe          BL       LCD_WriteReg
002202  2107              MOVS     r1,#7                 ;2178
002204  2011              MOVS     r0,#0x11              ;2178
002206  f7fffffe          BL       LCD_WriteReg
00220a  2100              MOVS     r1,#0                 ;2179
00220c  2012              MOVS     r0,#0x12              ;2179
00220e  f7fffffe          BL       LCD_WriteReg
002212  2100              MOVS     r1,#0                 ;2180
002214  2013              MOVS     r0,#0x13              ;2180
002216  f7fffffe          BL       LCD_WriteReg
00221a  20c8              MOVS     r0,#0xc8              ;2181
00221c  f7fffffe          BL       delay_ms
002220  f2416190          MOV      r1,#0x1690            ;2182
002224  2010              MOVS     r0,#0x10              ;2182
002226  f7fffffe          BL       LCD_WriteReg
00222a  f2402127          MOV      r1,#0x227             ;2183
00222e  2011              MOVS     r0,#0x11              ;2183
002230  f7fffffe          BL       LCD_WriteReg
002234  2032              MOVS     r0,#0x32              ;2184
002236  f7fffffe          BL       delay_ms
00223a  210c              MOVS     r1,#0xc               ;2185
00223c  2012              MOVS     r0,#0x12              ;2185
00223e  f7fffffe          BL       LCD_WriteReg
002242  2032              MOVS     r0,#0x32              ;2186
002244  f7fffffe          BL       delay_ms
002248  f44f6100          MOV      r1,#0x800             ;2187
00224c  2013              MOVS     r0,#0x13              ;2187
00224e  f7fffffe          BL       LCD_WriteReg
002252  2111              MOVS     r1,#0x11              ;2188
002254  2029              MOVS     r0,#0x29              ;2188
002256  f7fffffe          BL       LCD_WriteReg
00225a  210b              MOVS     r1,#0xb               ;2189
00225c  202b              MOVS     r0,#0x2b              ;2189
00225e  f7fffffe          BL       LCD_WriteReg
002262  2032              MOVS     r0,#0x32              ;2190
002264  f7fffffe          BL       delay_ms
002268  2100              MOVS     r1,#0                 ;2191
00226a  2020              MOVS     r0,#0x20              ;2191
00226c  f7fffffe          BL       LCD_WriteReg
002270  f240133f          MOV      r3,#0x13f             ;2192
002274  4619              MOV      r1,r3                 ;2192
002276  2021              MOVS     r0,#0x21              ;2192
002278  f7fffffe          BL       LCD_WriteReg
00227c  2100              MOVS     r1,#0                 ;2194
00227e  2030              MOVS     r0,#0x30              ;2194
002280  f7fffffe          BL       LCD_WriteReg
002284  f44f7483          MOV      r4,#0x106             ;2195
002288  4621              MOV      r1,r4                 ;2195
00228a  2031              MOVS     r0,#0x31              ;2195
00228c  f7fffffe          BL       LCD_WriteReg
002290  2100              MOVS     r1,#0                 ;2196
002292  2032              MOVS     r0,#0x32              ;2196
002294  f7fffffe          BL       LCD_WriteReg
002298  f44f7101          MOV      r1,#0x204             ;2197
00229c  2035              MOVS     r0,#0x35              ;2197
00229e  f7fffffe          BL       LCD_WriteReg
0022a2  f241610a          MOV      r1,#0x160a            ;2198
0022a6  2036              MOVS     r0,#0x36              ;2198
0022a8  f7fffffe          BL       LCD_WriteReg
0022ac  4639              MOV      r1,r7                 ;2199
0022ae  2037              MOVS     r0,#0x37              ;2199
0022b0  f7fffffe          BL       LCD_WriteReg
0022b4  4621              MOV      r1,r4                 ;2200
0022b6  2038              MOVS     r0,#0x38              ;2200
0022b8  f7fffffe          BL       LCD_WriteReg
0022bc  4639              MOV      r1,r7                 ;2201
0022be  2039              MOVS     r0,#0x39              ;2201
0022c0  f7fffffe          BL       LCD_WriteReg
0022c4  f2404102          MOV      r1,#0x402             ;2202
0022c8  203c              MOVS     r0,#0x3c              ;2202
0022ca  f7fffffe          BL       LCD_WriteReg
0022ce  f640410f          MOV      r1,#0xc0f             ;2203
0022d2  203d              MOVS     r0,#0x3d              ;2203
0022d4  f7fffffe          BL       LCD_WriteReg
0022d8  2100              MOVS     r1,#0                 ;2205
0022da  2050              MOVS     r0,#0x50              ;2205
0022dc  f7fffffe          BL       LCD_WriteReg
0022e0  21ef              MOVS     r1,#0xef              ;2206
0022e2  2051              MOVS     r0,#0x51              ;2206
0022e4  f7fffffe          BL       LCD_WriteReg
0022e8  2100              MOVS     r1,#0                 ;2207
0022ea  2052              MOVS     r0,#0x52              ;2207
0022ec  f7fffffe          BL       LCD_WriteReg
0022f0  4619              MOV      r1,r3                 ;2208
0022f2  2053              MOVS     r0,#0x53              ;2208
0022f4  f7fffffe          BL       LCD_WriteReg
0022f8  f44f511c          MOV      r1,#0x2700            ;2209
                  |L13.8956|
0022fc  2060              MOVS     r0,#0x60              ;2100
0022fe  f7fffffe          BL       LCD_WriteReg
002302  2101              MOVS     r1,#1                 ;2101
002304  2061              MOVS     r0,#0x61              ;2101
002306  f7fffffe          BL       LCD_WriteReg
00230a  2100              MOVS     r1,#0                 ;2102
00230c  206a              MOVS     r0,#0x6a              ;2102
00230e  f7fffffe          BL       LCD_WriteReg
002312  2100              MOVS     r1,#0                 ;2103
002314  2080              MOVS     r0,#0x80              ;2103
002316  f7fffffe          BL       LCD_WriteReg
00231a  2100              MOVS     r1,#0                 ;2104
00231c  2081              MOVS     r0,#0x81              ;2104
00231e  f7fffffe          BL       LCD_WriteReg
002322  2100              MOVS     r1,#0                 ;2105
002324  2082              MOVS     r0,#0x82              ;2105
002326  f7fffffe          BL       LCD_WriteReg
00232a  2100              MOVS     r1,#0                 ;2106
00232c  2083              MOVS     r0,#0x83              ;2106
00232e  f7fffffe          BL       LCD_WriteReg
002332  2100              MOVS     r1,#0                 ;2107
002334  2084              MOVS     r0,#0x84              ;2107
002336  f7fffffe          BL       LCD_WriteReg
00233a  2100              MOVS     r1,#0                 ;2108
00233c  2085              MOVS     r0,#0x85              ;2108
00233e  f7fffffe          BL       LCD_WriteReg
002342  2110              MOVS     r1,#0x10              ;2110
002344  2090              MOVS     r0,#0x90              ;2110
002346  f7fffffe          BL       LCD_WriteReg
00234a  f44f61c0          MOV      r1,#0x600             ;2111
00234e  2092              MOVS     r0,#0x92              ;2111
002350  e3fd              B        |L13.11086|
                  |L13.9042|
002352  4631              MOV      r1,r6                 ;2225
002354  2001              MOVS     r0,#1                 ;2225
002356  f7fffffe          BL       LCD_WriteReg
00235a  4649              MOV      r1,r9                 ;2226
00235c  2002              MOVS     r0,#2                 ;2226
00235e  f7fffffe          BL       LCD_WriteReg
002362  f2410130          MOV      r1,#0x1030            ;2227
002366  2003              MOVS     r0,#3                 ;2227
002368  f7fffffe          BL       LCD_WriteReg
00236c  2100              MOVS     r1,#0                 ;2232
00236e  2004              MOVS     r0,#4                 ;2232
002370  f7fffffe          BL       LCD_WriteReg
002374  f2402107          MOV      r1,#0x207             ;2233
002378  2008              MOVS     r0,#8                 ;2233
00237a  f7fffffe          BL       LCD_WriteReg
00237e  2100              MOVS     r1,#0                 ;2234
002380  2009              MOVS     r0,#9                 ;2234
002382  f7fffffe          BL       LCD_WriteReg
002386  2100              MOVS     r1,#0                 ;2235
002388  200a              MOVS     r0,#0xa               ;2235
00238a  f7fffffe          BL       LCD_WriteReg
00238e  2100              MOVS     r1,#0                 ;2236
002390  200c              MOVS     r0,#0xc               ;2236
002392  f7fffffe          BL       LCD_WriteReg
002396  2100              MOVS     r1,#0                 ;2237
002398  200d              MOVS     r0,#0xd               ;2237
00239a  f7fffffe          BL       LCD_WriteReg
00239e  2100              MOVS     r1,#0                 ;2238
0023a0  200f              MOVS     r0,#0xf               ;2238
0023a2  f7fffffe          BL       LCD_WriteReg
0023a6  2014              MOVS     r0,#0x14              ;2239
0023a8  f7fffffe          BL       delay_ms
0023ac  f24161b0          MOV      r1,#0x16b0            ;2241
0023b0  2010              MOVS     r0,#0x10              ;2241
0023b2  f7fffffe          BL       LCD_WriteReg
0023b6  2101              MOVS     r1,#1                 ;2242
0023b8  2011              MOVS     r0,#0x11              ;2242
0023ba  f7fffffe          BL       LCD_WriteReg
0023be  2101              MOVS     r1,#1                 ;2243
0023c0  2017              MOVS     r0,#0x17              ;2243
0023c2  f7fffffe          BL       LCD_WriteReg
0023c6  f44f719c          MOV      r1,#0x138             ;2244
0023ca  2012              MOVS     r0,#0x12              ;2244
0023cc  f7fffffe          BL       LCD_WriteReg
0023d0  f44f6100          MOV      r1,#0x800             ;2245
0023d4  2013              MOVS     r0,#0x13              ;2245
0023d6  f7fffffe          BL       LCD_WriteReg
0023da  2109              MOVS     r1,#9                 ;2246
0023dc  2029              MOVS     r0,#0x29              ;2246
0023de  f7fffffe          BL       LCD_WriteReg
0023e2  2109              MOVS     r1,#9                 ;2247
0023e4  202a              MOVS     r0,#0x2a              ;2247
0023e6  f7fffffe          BL       LCD_WriteReg
0023ea  2100              MOVS     r1,#0                 ;2248
0023ec  20a4              MOVS     r0,#0xa4              ;2248
0023ee  f7fffffe          BL       LCD_WriteReg
0023f2  2100              MOVS     r1,#0                 ;2249
0023f4  2050              MOVS     r0,#0x50              ;2249
0023f6  f7fffffe          BL       LCD_WriteReg
0023fa  21ef              MOVS     r1,#0xef              ;2250
0023fc  2051              MOVS     r0,#0x51              ;2250
0023fe  f7fffffe          BL       LCD_WriteReg
002402  2100              MOVS     r1,#0                 ;2251
002404  2052              MOVS     r0,#0x52              ;2251
002406  f7fffffe          BL       LCD_WriteReg
00240a  f240113f          MOV      r1,#0x13f             ;2252
00240e  2053              MOVS     r0,#0x53              ;2252
002410  f7fffffe          BL       LCD_WriteReg
002414  f44f511c          MOV      r1,#0x2700            ;2253
002418  2060              MOVS     r0,#0x60              ;2253
00241a  f7fffffe          BL       LCD_WriteReg
00241e  2101              MOVS     r1,#1                 ;2255
002420  2061              MOVS     r0,#0x61              ;2255
002422  f7fffffe          BL       LCD_WriteReg
002426  2100              MOVS     r1,#0                 ;2256
002428  206a              MOVS     r0,#0x6a              ;2256
00242a  f7fffffe          BL       LCD_WriteReg
00242e  2100              MOVS     r1,#0                 ;2257
002430  2080              MOVS     r0,#0x80              ;2257
002432  f7fffffe          BL       LCD_WriteReg
002436  2100              MOVS     r1,#0                 ;2258
002438  2081              MOVS     r0,#0x81              ;2258
00243a  f7fffffe          BL       LCD_WriteReg
00243e  2100              MOVS     r1,#0                 ;2259
002440  2082              MOVS     r0,#0x82              ;2259
002442  f7fffffe          BL       LCD_WriteReg
002446  2100              MOVS     r1,#0                 ;2260
002448  2083              MOVS     r0,#0x83              ;2260
00244a  f7fffffe          BL       LCD_WriteReg
00244e  2100              MOVS     r1,#0                 ;2261
002450  2084              MOVS     r0,#0x84              ;2261
002452  f7fffffe          BL       LCD_WriteReg
002456  2100              MOVS     r1,#0                 ;2262
002458  2085              MOVS     r0,#0x85              ;2262
00245a  f7fffffe          BL       LCD_WriteReg
00245e  2113              MOVS     r1,#0x13              ;2263
002460  2090              MOVS     r0,#0x90              ;2263
002462  f7fffffe          BL       LCD_WriteReg
002466  2100              MOVS     r1,#0                 ;2264
002468  2092              MOVS     r0,#0x92              ;2264
00246a  f7fffffe          BL       LCD_WriteReg
00246e  2103              MOVS     r1,#3                 ;2265
002470  2093              MOVS     r0,#0x93              ;2265
002472  f7fffffe          BL       LCD_WriteReg
002476  4659              MOV      r1,r11                ;2266
002478  2095              MOVS     r0,#0x95              ;2266
00247a  f7fffffe          BL       LCD_WriteReg
00247e  f2401173          MOV      r1,#0x173             ;2267
002482  2007              MOVS     r0,#7                 ;2267
002484  f7fffffe          BL       LCD_WriteReg
002488  2032              MOVS     r0,#0x32              ;2268
00248a  e110              B        |L13.9902|
                  |L13.9356|
00248c  2100              MOVS     r1,#0                 ;2273
00248e  2007              MOVS     r0,#7                 ;2273
002490  f7fffffe          BL       LCD_WriteReg
002494  2032              MOVS     r0,#0x32              ;2274
002496  f7fffffe          BL       delay_ms
00249a  f44f718e          MOV      r1,#0x11c             ;2275
00249e  2012              MOVS     r0,#0x12              ;2275
0024a0  f7fffffe          BL       LCD_WriteReg
0024a4  2101              MOVS     r1,#1                 ;2276
0024a6  20a4              MOVS     r0,#0xa4              ;2276
0024a8  f7fffffe          BL       LCD_WriteReg
0024ac  210f              MOVS     r1,#0xf               ;2277
0024ae  2008              MOVS     r0,#8                 ;2277
0024b0  f7fffffe          BL       LCD_WriteReg
0024b4  2108              MOVS     r1,#8                 ;2278
0024b6  200a              MOVS     r0,#0xa               ;2278
0024b8  f7fffffe          BL       LCD_WriteReg
0024bc  2108              MOVS     r1,#8                 ;2279
0024be  200d              MOVS     r0,#0xd               ;2279
0024c0  f7fffffe          BL       LCD_WriteReg
0024c4  4639              MOV      r1,r7                 ;2281
0024c6  2030              MOVS     r0,#0x30              ;2281
0024c8  f7fffffe          BL       LCD_WriteReg
0024cc  2107              MOVS     r1,#7                 ;2282
0024ce  e000              B        |L13.9426|
                  |L13.9424|
0024d0  e36f              B        |L13.11186|
                  |L13.9426|
0024d2  2031              MOVS     r0,#0x31              ;2282
0024d4  f7fffffe          BL       LCD_WriteReg
0024d8  f2406103          MOV      r1,#0x603             ;2283
0024dc  2032              MOVS     r0,#0x32              ;2283
0024de  f7fffffe          BL       LCD_WriteReg
0024e2  464c              MOV      r4,r9                 ;2284
0024e4  4649              MOV      r1,r9                 ;2284
0024e6  2033              MOVS     r0,#0x33              ;2284
0024e8  f7fffffe          BL       LCD_WriteReg
0024ec  4651              MOV      r1,r10                ;2285
0024ee  2034              MOVS     r0,#0x34              ;2285
0024f0  f7fffffe          BL       LCD_WriteReg
0024f4  2102              MOVS     r1,#2                 ;2286
0024f6  2035              MOVS     r0,#0x35              ;2286
0024f8  f7fffffe          BL       LCD_WriteReg
0024fc  f641710f          MOV      r1,#0x1f0f            ;2287
002500  2036              MOVS     r0,#0x36              ;2287
002502  f7fffffe          BL       LCD_WriteReg
002506  4639              MOV      r1,r7                 ;2288
002508  2037              MOVS     r0,#0x37              ;2288
00250a  f7fffffe          BL       LCD_WriteReg
00250e  2100              MOVS     r1,#0                 ;2289
002510  2038              MOVS     r0,#0x38              ;2289
002512  f7fffffe          BL       LCD_WriteReg
002516  2100              MOVS     r1,#0                 ;2290
002518  2039              MOVS     r0,#0x39              ;2290
00251a  f7fffffe          BL       LCD_WriteReg
00251e  4639              MOV      r1,r7                 ;2291
002520  203a              MOVS     r0,#0x3a              ;2291
002522  f7fffffe          BL       LCD_WriteReg
002526  2100              MOVS     r1,#0                 ;2292
002528  203b              MOVS     r0,#0x3b              ;2292
00252a  f7fffffe          BL       LCD_WriteReg
00252e  2107              MOVS     r1,#7                 ;2293
002530  203c              MOVS     r0,#0x3c              ;2293
002532  f7fffffe          BL       LCD_WriteReg
002536  2100              MOVS     r1,#0                 ;2294
002538  203d              MOVS     r0,#0x3d              ;2294
00253a  f7fffffe          BL       LCD_WriteReg
00253e  2032              MOVS     r0,#0x32              ;2295
002540  f7fffffe          BL       delay_ms
002544  2101              MOVS     r1,#1                 ;2296
002546  2007              MOVS     r0,#7                 ;2296
002548  f7fffffe          BL       LCD_WriteReg
00254c  2101              MOVS     r1,#1                 ;2297
00254e  2017              MOVS     r0,#0x17              ;2297
002550  f7fffffe          BL       LCD_WriteReg
002554  2032              MOVS     r0,#0x32              ;2298
002556  f7fffffe          BL       delay_ms
00255a  f44f51bd          MOV      r1,#0x17a0            ;2300
00255e  2010              MOVS     r0,#0x10              ;2300
002560  f7fffffe          BL       LCD_WriteReg
002564  f2402117          MOV      r1,#0x217             ;2301
002568  2011              MOVS     r0,#0x11              ;2301
00256a  f7fffffe          BL       LCD_WriteReg
00256e  f44f718f          MOV      r1,#0x11e             ;2302
002572  2012              MOVS     r0,#0x12              ;2302
002574  f7fffffe          BL       LCD_WriteReg
002578  f44f6170          MOV      r1,#0xf00             ;2303
00257c  2013              MOVS     r0,#0x13              ;2303
00257e  f7fffffe          BL       LCD_WriteReg
002582  2100              MOVS     r1,#0                 ;2304
002584  202a              MOVS     r0,#0x2a              ;2304
002586  f7fffffe          BL       LCD_WriteReg
00258a  210a              MOVS     r1,#0xa               ;2305
00258c  2029              MOVS     r0,#0x29              ;2305
00258e  f7fffffe          BL       LCD_WriteReg
002592  f44f719f          MOV      r1,#0x13e             ;2306
002596  2012              MOVS     r0,#0x12              ;2306
002598  f7fffffe          BL       LCD_WriteReg
00259c  2100              MOVS     r1,#0                 ;2308
00259e  2050              MOVS     r0,#0x50              ;2308
0025a0  f7fffffe          BL       LCD_WriteReg
0025a4  21ef              MOVS     r1,#0xef              ;2309
0025a6  2051              MOVS     r0,#0x51              ;2309
0025a8  f7fffffe          BL       LCD_WriteReg
0025ac  2100              MOVS     r1,#0                 ;2310
0025ae  2052              MOVS     r0,#0x52              ;2310
0025b0  f7fffffe          BL       LCD_WriteReg
0025b4  f240113f          MOV      r1,#0x13f             ;2311
0025b8  2053              MOVS     r0,#0x53              ;2311
0025ba  f7fffffe          BL       LCD_WriteReg
0025be  f44f511c          MOV      r1,#0x2700            ;2313
0025c2  2060              MOVS     r0,#0x60              ;2313
0025c4  f7fffffe          BL       LCD_WriteReg
0025c8  2101              MOVS     r1,#1                 ;2314
0025ca  2061              MOVS     r0,#0x61              ;2314
0025cc  f7fffffe          BL       LCD_WriteReg
0025d0  2100              MOVS     r1,#0                 ;2315
0025d2  206a              MOVS     r0,#0x6a              ;2315
0025d4  f7fffffe          BL       LCD_WriteReg
0025d8  2100              MOVS     r1,#0                 ;2316
0025da  2080              MOVS     r0,#0x80              ;2316
0025dc  f7fffffe          BL       LCD_WriteReg
0025e0  2100              MOVS     r1,#0                 ;2318
0025e2  2081              MOVS     r0,#0x81              ;2318
0025e4  f7fffffe          BL       LCD_WriteReg
0025e8  2100              MOVS     r1,#0                 ;2319
0025ea  2082              MOVS     r0,#0x82              ;2319
0025ec  f7fffffe          BL       LCD_WriteReg
0025f0  2100              MOVS     r1,#0                 ;2320
0025f2  e004              B        |L13.9726|
                  |L13.9716|
0025f4  e05e              B        |L13.9908|
                  |L13.9718|
0025f6  e15c              B        |L13.10418|
                  |L13.9720|
0025f8  e225              B        |L13.10822|
                  |L13.9722|
0025fa  e2db              B        |L13.11188|
                  |L13.9724|
0025fc  e382              B        |L13.11524|
                  |L13.9726|
0025fe  2083              MOVS     r0,#0x83              ;2320
002600  f7fffffe          BL       LCD_WriteReg
002604  2100              MOVS     r1,#0                 ;2321
002606  2084              MOVS     r0,#0x84              ;2321
002608  f7fffffe          BL       LCD_WriteReg
00260c  2100              MOVS     r1,#0                 ;2322
00260e  2085              MOVS     r0,#0x85              ;2322
002610  f7fffffe          BL       LCD_WriteReg
002614  2113              MOVS     r1,#0x13              ;2324
002616  2090              MOVS     r0,#0x90              ;2324
002618  f7fffffe          BL       LCD_WriteReg
00261c  4659              MOV      r1,r11                ;2325
00261e  2092              MOVS     r0,#0x92              ;2325
002620  f7fffffe          BL       LCD_WriteReg
002624  2105              MOVS     r1,#5                 ;2326
002626  2093              MOVS     r0,#0x93              ;2326
002628  f7fffffe          BL       LCD_WriteReg
00262c  2100              MOVS     r1,#0                 ;2327
00262e  2095              MOVS     r0,#0x95              ;2327
002630  f7fffffe          BL       LCD_WriteReg
002634  2100              MOVS     r1,#0                 ;2328
002636  2097              MOVS     r0,#0x97              ;2328
002638  f7fffffe          BL       LCD_WriteReg
00263c  2100              MOVS     r1,#0                 ;2329
00263e  2098              MOVS     r0,#0x98              ;2329
002640  f7fffffe          BL       LCD_WriteReg
002644  4631              MOV      r1,r6                 ;2331
002646  2001              MOVS     r0,#1                 ;2331
002648  f7fffffe          BL       LCD_WriteReg
00264c  4621              MOV      r1,r4                 ;2332
00264e  2002              MOVS     r0,#2                 ;2332
002650  f7fffffe          BL       LCD_WriteReg
002654  f2410138          MOV      r1,#0x1038            ;2333
002658  2003              MOVS     r0,#3                 ;2333
00265a  f7fffffe          BL       LCD_WriteReg
00265e  2100              MOVS     r1,#0                 ;2334
002660  2004              MOVS     r0,#4                 ;2334
002662  f7fffffe          BL       LCD_WriteReg
002666  2100              MOVS     r1,#0                 ;2335
002668  200c              MOVS     r0,#0xc               ;2335
00266a  f7fffffe          BL       LCD_WriteReg
00266e  2100              MOVS     r1,#0                 ;2336
002670  200f              MOVS     r0,#0xf               ;2336
002672  f7fffffe          BL       LCD_WriteReg
002676  2100              MOVS     r1,#0                 ;2337
002678  2020              MOVS     r0,#0x20              ;2337
00267a  f7fffffe          BL       LCD_WriteReg
00267e  2100              MOVS     r1,#0                 ;2338
002680  2021              MOVS     r0,#0x21              ;2338
002682  f7fffffe          BL       LCD_WriteReg
002686  2121              MOVS     r1,#0x21              ;2339
002688  2007              MOVS     r0,#7                 ;2339
00268a  f7fffffe          BL       LCD_WriteReg
00268e  2014              MOVS     r0,#0x14              ;2340
002690  f7fffffe          BL       delay_ms
002694  2161              MOVS     r1,#0x61              ;2341
002696  2007              MOVS     r0,#7                 ;2341
002698  f7fffffe          BL       LCD_WriteReg
00269c  2014              MOVS     r0,#0x14              ;2342
00269e  f7fffffe          BL       delay_ms
0026a2  f2401173          MOV      r1,#0x173             ;2343
0026a6  2007              MOVS     r0,#7                 ;2343
0026a8  f7fffffe          BL       LCD_WriteReg
0026ac  2014              MOVS     r0,#0x14              ;2344
                  |L13.9902|
0026ae  f7fffffe          BL       delay_ms
0026b2  e3a1              B        |L13.11768|
                  |L13.9908|
0026b4  2100              MOVS     r1,#0                 ;2347
0026b6  4608              MOV      r0,r1                 ;2347
0026b8  f7fffffe          BL       LCD_WriteReg
0026bc  2100              MOVS     r1,#0                 ;2348
0026be  4608              MOV      r0,r1                 ;2348
0026c0  f7fffffe          BL       LCD_WriteReg
0026c4  2100              MOVS     r1,#0                 ;2349
0026c6  4608              MOV      r0,r1                 ;2349
0026c8  f7fffffe          BL       LCD_WriteReg
0026cc  2100              MOVS     r1,#0                 ;2350
0026ce  4608              MOV      r0,r1                 ;2350
0026d0  f7fffffe          BL       LCD_WriteReg
0026d4  2101              MOVS     r1,#1                 ;2352
0026d6  20a4              MOVS     r0,#0xa4              ;2352
0026d8  e000              B        |L13.9948|
                  |L13.9946|
0026da  e0e5              B        |L13.10408|
                  |L13.9948|
0026dc  f7fffffe          BL       LCD_WriteReg
0026e0  2014              MOVS     r0,#0x14              ;2353
0026e2  f7fffffe          BL       delay_ms
0026e6  f44f541c          MOV      r4,#0x2700            ;2354
0026ea  4621              MOV      r1,r4                 ;2354
0026ec  2060              MOVS     r0,#0x60              ;2354
0026ee  f7fffffe          BL       LCD_WriteReg
0026f2  4655              MOV      r5,r10                ;2355
0026f4  4651              MOV      r1,r10                ;2355
0026f6  2008              MOVS     r0,#8                 ;2355
0026f8  f7fffffe          BL       LCD_WriteReg
0026fc  f44f7105          MOV      r1,#0x214             ;2357
002700  2030              MOVS     r0,#0x30              ;2357
002702  f7fffffe          BL       LCD_WriteReg
002706  f2437115          MOV      r1,#0x3715            ;2358
00270a  2031              MOVS     r0,#0x31              ;2358
00270c  f7fffffe          BL       LCD_WriteReg
002710  f2406104          MOV      r1,#0x604             ;2359
002714  2032              MOVS     r0,#0x32              ;2359
002716  f7fffffe          BL       LCD_WriteReg
00271a  f6406116          MOV      r1,#0xe16             ;2360
00271e  2033              MOVS     r0,#0x33              ;2360
002720  f7fffffe          BL       LCD_WriteReg
002724  f2422111          MOV      r1,#0x2211            ;2361
002728  2034              MOVS     r0,#0x34              ;2361
00272a  f7fffffe          BL       LCD_WriteReg
00272e  f44f51a8          MOV      r1,#0x1500            ;2362
002732  2035              MOVS     r0,#0x35              ;2362
002734  f7fffffe          BL       LCD_WriteReg
002738  f2485107          MOV      r1,#0x8507            ;2363
00273c  2036              MOVS     r0,#0x36              ;2363
00273e  f7fffffe          BL       LCD_WriteReg
002742  f2414107          MOV      r1,#0x1407            ;2364
002746  2037              MOVS     r0,#0x37              ;2364
002748  f7fffffe          BL       LCD_WriteReg
00274c  f2414103          MOV      r1,#0x1403            ;2365
002750  2038              MOVS     r0,#0x38              ;2365
002752  f7fffffe          BL       LCD_WriteReg
002756  2120              MOVS     r1,#0x20              ;2366
002758  2039              MOVS     r0,#0x39              ;2366
00275a  f7fffffe          BL       LCD_WriteReg
00275e  211a              MOVS     r1,#0x1a              ;2368
002760  2090              MOVS     r0,#0x90              ;2368
002762  f7fffffe          BL       LCD_WriteReg
002766  2100              MOVS     r1,#0                 ;2369
002768  2010              MOVS     r0,#0x10              ;2369
00276a  f7fffffe          BL       LCD_WriteReg
00276e  2107              MOVS     r1,#7                 ;2370
002770  2011              MOVS     r0,#0x11              ;2370
002772  f7fffffe          BL       LCD_WriteReg
002776  2100              MOVS     r1,#0                 ;2371
002778  2012              MOVS     r0,#0x12              ;2371
00277a  f7fffffe          BL       LCD_WriteReg
00277e  2100              MOVS     r1,#0                 ;2372
002780  2013              MOVS     r0,#0x13              ;2372
002782  f7fffffe          BL       LCD_WriteReg
002786  2014              MOVS     r0,#0x14              ;2373
002788  f7fffffe          BL       delay_ms
00278c  f44f61e6          MOV      r1,#0x730             ;2375
002790  2010              MOVS     r0,#0x10              ;2375
002792  f7fffffe          BL       LCD_WriteReg
002796  f2401137          MOV      r1,#0x137             ;2376
00279a  2011              MOVS     r0,#0x11              ;2376
00279c  f7fffffe          BL       LCD_WriteReg
0027a0  2014              MOVS     r0,#0x14              ;2377
0027a2  f7fffffe          BL       delay_ms
0027a6  f44f71dc          MOV      r1,#0x1b8             ;2379
0027aa  2012              MOVS     r0,#0x12              ;2379
0027ac  f7fffffe          BL       LCD_WriteReg
0027b0  2014              MOVS     r0,#0x14              ;2380
0027b2  f7fffffe          BL       delay_ms
0027b6  f44f6170          MOV      r1,#0xf00             ;2382
0027ba  2013              MOVS     r0,#0x13              ;2382
0027bc  f7fffffe          BL       LCD_WriteReg
0027c0  2180              MOVS     r1,#0x80              ;2383
0027c2  202a              MOVS     r0,#0x2a              ;2383
0027c4  f7fffffe          BL       LCD_WriteReg
0027c8  2148              MOVS     r1,#0x48              ;2384
0027ca  2029              MOVS     r0,#0x29              ;2384
0027cc  f7fffffe          BL       LCD_WriteReg
0027d0  2014              MOVS     r0,#0x14              ;2385
0027d2  f7fffffe          BL       delay_ms
0027d6  4631              MOV      r1,r6                 ;2387
0027d8  2001              MOVS     r0,#1                 ;2387
0027da  f7fffffe          BL       LCD_WriteReg
0027de  4649              MOV      r1,r9                 ;2388
0027e0  2002              MOVS     r0,#2                 ;2388
0027e2  f7fffffe          BL       LCD_WriteReg
0027e6  f2410138          MOV      r1,#0x1038            ;2389
0027ea  2003              MOVS     r0,#3                 ;2389
0027ec  f7fffffe          BL       LCD_WriteReg
0027f0  4629              MOV      r1,r5                 ;2390
0027f2  2008              MOVS     r0,#8                 ;2390
0027f4  f7fffffe          BL       LCD_WriteReg
0027f8  2100              MOVS     r1,#0                 ;2391
0027fa  200a              MOVS     r0,#0xa               ;2391
0027fc  f7fffffe          BL       LCD_WriteReg
002800  2100              MOVS     r1,#0                 ;2392
002802  200c              MOVS     r0,#0xc               ;2392
002804  f7fffffe          BL       LCD_WriteReg
002808  2100              MOVS     r1,#0                 ;2393
00280a  200d              MOVS     r0,#0xd               ;2393
00280c  f7fffffe          BL       LCD_WriteReg
002810  2130              MOVS     r1,#0x30              ;2394
002812  200e              MOVS     r0,#0xe               ;2394
002814  f7fffffe          BL       LCD_WriteReg
002818  2100              MOVS     r1,#0                 ;2395
00281a  2050              MOVS     r0,#0x50              ;2395
00281c  f7fffffe          BL       LCD_WriteReg
002820  21ef              MOVS     r1,#0xef              ;2396
002822  2051              MOVS     r0,#0x51              ;2396
002824  f7fffffe          BL       LCD_WriteReg
002828  2100              MOVS     r1,#0                 ;2397
00282a  2052              MOVS     r0,#0x52              ;2397
00282c  f7fffffe          BL       LCD_WriteReg
002830  f240113f          MOV      r1,#0x13f             ;2398
002834  2053              MOVS     r0,#0x53              ;2398
002836  f7fffffe          BL       LCD_WriteReg
00283a  4621              MOV      r1,r4                 ;2399
00283c  2060              MOVS     r0,#0x60              ;2399
00283e  f7fffffe          BL       LCD_WriteReg
002842  2101              MOVS     r1,#1                 ;2400
002844  2061              MOVS     r0,#0x61              ;2400
002846  f7fffffe          BL       LCD_WriteReg
00284a  2100              MOVS     r1,#0                 ;2401
00284c  206a              MOVS     r0,#0x6a              ;2401
00284e  f7fffffe          BL       LCD_WriteReg
002852  2111              MOVS     r1,#0x11              ;2404
002854  2090              MOVS     r0,#0x90              ;2404
002856  f7fffffe          BL       LCD_WriteReg
00285a  f44f61c0          MOV      r1,#0x600             ;2405
00285e  2092              MOVS     r0,#0x92              ;2405
002860  f7fffffe          BL       LCD_WriteReg
002864  f2404102          MOV      r1,#0x402             ;2406
002868  2093              MOVS     r0,#0x93              ;2406
00286a  f7fffffe          BL       LCD_WriteReg
00286e  2102              MOVS     r1,#2                 ;2407
002870  2094              MOVS     r0,#0x94              ;2407
002872  f7fffffe          BL       LCD_WriteReg
002876  2014              MOVS     r0,#0x14              ;2408
002878  f7fffffe          BL       delay_ms
00287c  2101              MOVS     r1,#1                 ;2410
00287e  2007              MOVS     r0,#7                 ;2410
002880  f7fffffe          BL       LCD_WriteReg
002884  2014              MOVS     r0,#0x14              ;2411
002886  f7fffffe          BL       delay_ms
00288a  2161              MOVS     r1,#0x61              ;2412
00288c  2007              MOVS     r0,#7                 ;2412
00288e  f7fffffe          BL       LCD_WriteReg
002892  f2401173          MOV      r1,#0x173             ;2413
002896  2007              MOVS     r0,#7                 ;2413
002898  f7fffffe          BL       LCD_WriteReg
00289c  2100              MOVS     r1,#0                 ;2415
00289e  2020              MOVS     r0,#0x20              ;2415
0028a0  f7fffffe          BL       LCD_WriteReg
0028a4  2100              MOVS     r1,#0                 ;2416
0028a6  2021              MOVS     r0,#0x21              ;2416
                  |L13.10408|
0028a8  f7fffffe          BL       LCD_WriteReg
0028ac  2122              MOVS     r1,#0x22              ;2035
0028ae  2000              MOVS     r0,#0                 ;2035
                  |L13.10416|
0028b0  e17d              B        |L13.11182|
                  |L13.10418|
0028b2  2100              MOVS     r1,#0                 ;2420
0028b4  4608              MOV      r0,r1                 ;2420
0028b6  f7fffffe          BL       LCD_WriteReg
0028ba  2100              MOVS     r1,#0                 ;2421
0028bc  4608              MOV      r0,r1                 ;2421
0028be  f7fffffe          BL       LCD_WriteReg
0028c2  2014              MOVS     r0,#0x14              ;2422
0028c4  f7fffffe          BL       delay_ms
0028c8  2100              MOVS     r1,#0                 ;2423
0028ca  4608              MOV      r0,r1                 ;2423
0028cc  f7fffffe          BL       LCD_WriteReg
0028d0  2100              MOVS     r1,#0                 ;2424
0028d2  4608              MOV      r0,r1                 ;2424
0028d4  f7fffffe          BL       LCD_WriteReg
0028d8  2100              MOVS     r1,#0                 ;2425
0028da  4608              MOV      r0,r1                 ;2425
0028dc  f7fffffe          BL       LCD_WriteReg
0028e0  2100              MOVS     r1,#0                 ;2426
0028e2  4608              MOV      r0,r1                 ;2426
0028e4  f7fffffe          BL       LCD_WriteReg
0028e8  2101              MOVS     r1,#1                 ;2427
0028ea  20a4              MOVS     r0,#0xa4              ;2427
0028ec  f7fffffe          BL       LCD_WriteReg
0028f0  2014              MOVS     r0,#0x14              ;2428
0028f2  f7fffffe          BL       delay_ms
0028f6  f44f511c          MOV      r1,#0x2700            ;2429
0028fa  2060              MOVS     r0,#0x60              ;2429
0028fc  f7fffffe          BL       LCD_WriteReg
002900  f6400106          MOV      r1,#0x806             ;2430
002904  2008              MOVS     r0,#8                 ;2430
002906  f7fffffe          BL       LCD_WriteReg
00290a  f2407303          MOV      r3,#0x703             ;2432
00290e  4619              MOV      r1,r3                 ;2432
002910  2030              MOVS     r0,#0x30              ;2432
002912  f7fffffe          BL       LCD_WriteReg
002916  2101              MOVS     r1,#1                 ;2433
002918  2031              MOVS     r0,#0x31              ;2433
00291a  f7fffffe          BL       LCD_WriteReg
00291e  2104              MOVS     r1,#4                 ;2434
002920  2032              MOVS     r0,#0x32              ;2434
002922  f7fffffe          BL       LCD_WriteReg
002926  f44f7181          MOV      r1,#0x102             ;2435
00292a  2033              MOVS     r0,#0x33              ;2435
00292c  f7fffffe          BL       LCD_WriteReg
002930  465c              MOV      r4,r11                ;2436
002932  4659              MOV      r1,r11                ;2436
002934  2034              MOVS     r0,#0x34              ;2436
002936  f7fffffe          BL       LCD_WriteReg
00293a  f2401103          MOV      r1,#0x103             ;2437
00293e  2035              MOVS     r0,#0x35              ;2437
002940  f7fffffe          BL       LCD_WriteReg
002944  211f              MOVS     r1,#0x1f              ;2438
002946  2036              MOVS     r0,#0x36              ;2438
002948  f7fffffe          BL       LCD_WriteReg
00294c  4619              MOV      r1,r3                 ;2439
00294e  2037              MOVS     r0,#0x37              ;2439
002950  f7fffffe          BL       LCD_WriteReg
002954  2101              MOVS     r1,#1                 ;2440
002956  2038              MOVS     r0,#0x38              ;2440
002958  f7fffffe          BL       LCD_WriteReg
00295c  2104              MOVS     r1,#4                 ;2441
00295e  2039              MOVS     r0,#0x39              ;2441
002960  f7fffffe          BL       LCD_WriteReg
002964  2115              MOVS     r1,#0x15              ;2445
002966  2090              MOVS     r0,#0x90              ;2445
002968  f7fffffe          BL       LCD_WriteReg
00296c  f44f6182          MOV      r1,#0x410             ;2446
002970  2010              MOVS     r0,#0x10              ;2446
002972  f7fffffe          BL       LCD_WriteReg
002976  f2402147          MOV      r1,#0x247             ;2447
00297a  2011              MOVS     r0,#0x11              ;2447
00297c  f7fffffe          BL       LCD_WriteReg
002980  f44f71de          MOV      r1,#0x1bc             ;2448
002984  2012              MOVS     r0,#0x12              ;2448
002986  f7fffffe          BL       LCD_WriteReg
00298a  f44f6160          MOV      r1,#0xe00             ;2449
00298e  2013              MOVS     r0,#0x13              ;2449
002990  f7fffffe          BL       LCD_WriteReg
002994  2078              MOVS     r0,#0x78              ;2450
002996  f7fffffe          BL       delay_ms
00299a  4631              MOV      r1,r6                 ;2451
00299c  2001              MOVS     r0,#1                 ;2451
00299e  f7fffffe          BL       LCD_WriteReg
0029a2  f44f7100          MOV      r1,#0x200             ;2452
0029a6  2002              MOVS     r0,#2                 ;2452
0029a8  f7fffffe          BL       LCD_WriteReg
0029ac  f2410130          MOV      r1,#0x1030            ;2453
0029b0  2003              MOVS     r0,#3                 ;2453
0029b2  f7fffffe          BL       LCD_WriteReg
0029b6  2108              MOVS     r1,#8                 ;2455
0029b8  200a              MOVS     r0,#0xa               ;2455
0029ba  f7fffffe          BL       LCD_WriteReg
0029be  2100              MOVS     r1,#0                 ;2456
0029c0  200c              MOVS     r0,#0xc               ;2456
0029c2  f7fffffe          BL       LCD_WriteReg
0029c6  2120              MOVS     r1,#0x20              ;2458
0029c8  200e              MOVS     r0,#0xe               ;2458
0029ca  f7fffffe          BL       LCD_WriteReg
0029ce  2100              MOVS     r1,#0                 ;2459
0029d0  200f              MOVS     r0,#0xf               ;2459
0029d2  f7fffffe          BL       LCD_WriteReg
0029d6  2100              MOVS     r1,#0                 ;2460
0029d8  2020              MOVS     r0,#0x20              ;2460
0029da  f7fffffe          BL       LCD_WriteReg
0029de  2100              MOVS     r1,#0                 ;2461
0029e0  2021              MOVS     r0,#0x21              ;2461
0029e2  f7fffffe          BL       LCD_WriteReg
0029e6  213d              MOVS     r1,#0x3d              ;2462
0029e8  202a              MOVS     r0,#0x2a              ;2462
0029ea  f7fffffe          BL       LCD_WriteReg
0029ee  2014              MOVS     r0,#0x14              ;2463
0029f0  f7fffffe          BL       delay_ms
0029f4  212d              MOVS     r1,#0x2d              ;2464
0029f6  2029              MOVS     r0,#0x29              ;2464
0029f8  f7fffffe          BL       LCD_WriteReg
0029fc  2100              MOVS     r1,#0                 ;2465
0029fe  2050              MOVS     r0,#0x50              ;2465
002a00  f7fffffe          BL       LCD_WriteReg
002a04  f24d01ef          MOV      r1,#0xd0ef            ;2466
002a08  2051              MOVS     r0,#0x51              ;2466
002a0a  f7fffffe          BL       LCD_WriteReg
002a0e  2100              MOVS     r1,#0                 ;2467
002a10  2052              MOVS     r0,#0x52              ;2467
002a12  f7fffffe          BL       LCD_WriteReg
002a16  f240113f          MOV      r1,#0x13f             ;2468
002a1a  2053              MOVS     r0,#0x53              ;2468
002a1c  f7fffffe          BL       LCD_WriteReg
002a20  2100              MOVS     r1,#0                 ;2469
002a22  2061              MOVS     r0,#0x61              ;2469
002a24  f7fffffe          BL       LCD_WriteReg
002a28  2100              MOVS     r1,#0                 ;2470
002a2a  206a              MOVS     r0,#0x6a              ;2470
002a2c  f7fffffe          BL       LCD_WriteReg
002a30  4621              MOV      r1,r4                 ;2471
002a32  2092              MOVS     r0,#0x92              ;2471
002a34  f7fffffe          BL       LCD_WriteReg
002a38  2105              MOVS     r1,#5                 ;2473
002a3a  2093              MOVS     r0,#0x93              ;2473
002a3c  f7fffffe          BL       LCD_WriteReg
002a40  4631              MOV      r1,r6                 ;2474
                  |L13.10818|
002a42  f7ffbbad          B        |L13.8608|
                  |L13.10822|
002a46  2101              MOVS     r1,#1                 ;2477
002a48  2000              MOVS     r0,#0                 ;2477
002a4a  f7fffffe          BL       LCD_WriteReg
002a4e  200a              MOVS     r0,#0xa               ;2478
002a50  f7fffffe          BL       delay_ms
002a54  f2416128          MOV      r1,#0x1628            ;2479
002a58  2010              MOVS     r0,#0x10              ;2479
002a5a  f7fffffe          BL       LCD_WriteReg
002a5e  210e              MOVS     r1,#0xe               ;2480
002a60  2012              MOVS     r0,#0x12              ;2480
002a62  f7fffffe          BL       LCD_WriteReg
002a66  f6402139          MOV      r1,#0xa39             ;2481
002a6a  2013              MOVS     r0,#0x13              ;2481
002a6c  f7fffffe          BL       LCD_WriteReg
002a70  200a              MOVS     r0,#0xa               ;2482
002a72  f7fffffe          BL       delay_ms
002a76  2140              MOVS     r1,#0x40              ;2483
002a78  2011              MOVS     r0,#0x11              ;2483
002a7a  f7fffffe          BL       LCD_WriteReg
002a7e  2150              MOVS     r1,#0x50              ;2484
002a80  2015              MOVS     r0,#0x15              ;2484
002a82  f7fffffe          BL       LCD_WriteReg
002a86  200a              MOVS     r0,#0xa               ;2485
002a88  f7fffffe          BL       delay_ms
002a8c  211e              MOVS     r1,#0x1e              ;2486
002a8e  2012              MOVS     r0,#0x12              ;2486
002a90  f7fffffe          BL       LCD_WriteReg
002a94  200a              MOVS     r0,#0xa               ;2487
002a96  f7fffffe          BL       delay_ms
002a9a  f44f51b1          MOV      r1,#0x1620            ;2488
002a9e  2010              MOVS     r0,#0x10              ;2488
002aa0  f7fffffe          BL       LCD_WriteReg
002aa4  f6422139          MOV      r1,#0x2a39            ;2489
002aa8  2013              MOVS     r0,#0x13              ;2489
002aaa  f7fffffe          BL       LCD_WriteReg
002aae  200a              MOVS     r0,#0xa               ;2490
002ab0  f7fffffe          BL       delay_ms
002ab4  4631              MOV      r1,r6                 ;2491
002ab6  2001              MOVS     r0,#1                 ;2491
002ab8  f7fffffe          BL       LCD_WriteReg
002abc  4659              MOV      r1,r11                ;2492
002abe  2002              MOVS     r0,#2                 ;2492
002ac0  f7fffffe          BL       LCD_WriteReg
002ac4  f2410138          MOV      r1,#0x1038            ;2493
002ac8  2003              MOVS     r0,#3                 ;2493
002aca  f7fffffe          BL       LCD_WriteReg
002ace  4651              MOV      r1,r10                ;2494
002ad0  2008              MOVS     r0,#8                 ;2494
002ad2  f7fffffe          BL       LCD_WriteReg
002ad6  2108              MOVS     r1,#8                 ;2495
002ad8  200a              MOVS     r0,#0xa               ;2495
002ada  f7fffffe          BL       LCD_WriteReg
002ade  2100              MOVS     r1,#0                 ;2496
002ae0  2030              MOVS     r0,#0x30              ;2496
002ae2  f7fffffe          BL       LCD_WriteReg
002ae6  f2404102          MOV      r1,#0x402             ;2497
002aea  2031              MOVS     r0,#0x31              ;2497
002aec  f7fffffe          BL       LCD_WriteReg
002af0  f44f7183          MOV      r1,#0x106             ;2498
002af4  2032              MOVS     r0,#0x32              ;2498
002af6  f7fffffe          BL       LCD_WriteReg
002afa  f2405103          MOV      r1,#0x503             ;2499
002afe  2033              MOVS     r0,#0x33              ;2499
002b00  f7fffffe          BL       LCD_WriteReg
002b04  f44f7182          MOV      r1,#0x104             ;2500
002b08  2034              MOVS     r0,#0x34              ;2500
002b0a  f7fffffe          BL       LCD_WriteReg
002b0e  f2403101          MOV      r1,#0x301             ;2501
002b12  2035              MOVS     r0,#0x35              ;2501
002b14  f7fffffe          BL       LCD_WriteReg
002b18  4639              MOV      r1,r7                 ;2502
002b1a  2036              MOVS     r0,#0x36              ;2502
002b1c  f7fffffe          BL       LCD_WriteReg
002b20  f2403105          MOV      r1,#0x305             ;2503
002b24  2037              MOVS     r0,#0x37              ;2503
002b26  f7fffffe          BL       LCD_WriteReg
002b2a  f44f7102          MOV      r1,#0x208             ;2504
002b2e  2038              MOVS     r0,#0x38              ;2504
002b30  f7fffffe          BL       LCD_WriteReg
002b34  f640710b          MOV      r1,#0xf0b             ;2505
002b38  2039              MOVS     r0,#0x39              ;2505
002b3a  f7fffffe          BL       LCD_WriteReg
002b3e  2102              MOVS     r1,#2                 ;2506
002b40  2041              MOVS     r0,#0x41              ;2506
002b42  f7fffffe          BL       LCD_WriteReg
002b46  f44f511c          MOV      r1,#0x2700            ;2507
002b4a  2060              MOVS     r0,#0x60              ;2507
002b4c  e000              B        |L13.11088|
                  |L13.11086|
002b4e  e0d4              B        |L13.11514|
                  |L13.11088|
002b50  f7fffffe          BL       LCD_WriteReg
002b54  2101              MOVS     r1,#1                 ;2508
002b56  2061              MOVS     r0,#0x61              ;2508
002b58  f7fffffe          BL       LCD_WriteReg
002b5c  f44f7104          MOV      r1,#0x210             ;2509
002b60  2090              MOVS     r0,#0x90              ;2509
002b62  f7fffffe          BL       LCD_WriteReg
002b66  f44f7185          MOV      r1,#0x10a             ;2510
002b6a  2092              MOVS     r0,#0x92              ;2510
002b6c  f7fffffe          BL       LCD_WriteReg
002b70  2104              MOVS     r1,#4                 ;2511
002b72  2093              MOVS     r0,#0x93              ;2511
002b74  f7fffffe          BL       LCD_WriteReg
002b78  4631              MOV      r1,r6                 ;2512
002b7a  20a0              MOVS     r0,#0xa0              ;2512
002b7c  f7fffffe          BL       LCD_WriteReg
002b80  2101              MOVS     r1,#1                 ;2513
002b82  2007              MOVS     r0,#7                 ;2513
002b84  f7fffffe          BL       LCD_WriteReg
002b88  2121              MOVS     r1,#0x21              ;2514
002b8a  2007              MOVS     r0,#7                 ;2514
002b8c  f7fffffe          BL       LCD_WriteReg
002b90  2123              MOVS     r1,#0x23              ;2515
002b92  2007              MOVS     r0,#7                 ;2515
002b94  f7fffffe          BL       LCD_WriteReg
002b98  2133              MOVS     r1,#0x33              ;2516
002b9a  2007              MOVS     r0,#7                 ;2516
002b9c  f7fffffe          BL       LCD_WriteReg
002ba0  f2401133          MOV      r1,#0x133             ;2517
002ba4  2007              MOVS     r0,#7                 ;2517
002ba6  f7fffffe          BL       LCD_WriteReg
002baa  2100              MOVS     r1,#0                 ;2518
002bac  20a0              MOVS     r0,#0xa0              ;2518
                  |L13.11182|
002bae  f7fffffe          BL       LCD_WriteReg
                  |L13.11186|
002bb2  e121              B        |L13.11768|
                  |L13.11188|
002bb4  2130              MOVS     r1,#0x30              ;2521
002bb6  2015              MOVS     r0,#0x15              ;2521
002bb8  f7fffffe          BL       LCD_WriteReg
002bbc  2110              MOVS     r1,#0x10              ;2522
002bbe  209a              MOVS     r0,#0x9a              ;2522
002bc0  f7fffffe          BL       LCD_WriteReg
002bc4  2120              MOVS     r1,#0x20              ;2523
002bc6  2011              MOVS     r0,#0x11              ;2523
002bc8  f7fffffe          BL       LCD_WriteReg
002bcc  f2434128          MOV      r1,#0x3428            ;2524
002bd0  2010              MOVS     r0,#0x10              ;2524
002bd2  f7fffffe          BL       LCD_WriteReg
002bd6  2102              MOVS     r1,#2                 ;2525
002bd8  2012              MOVS     r0,#0x12              ;2525
002bda  f7fffffe          BL       LCD_WriteReg
002bde  f2410138          MOV      r1,#0x1038            ;2526
002be2  2013              MOVS     r0,#0x13              ;2526
002be4  f7fffffe          BL       LCD_WriteReg
002be8  2028              MOVS     r0,#0x28              ;2527
002bea  f7fffffe          BL       delay_ms
002bee  2112              MOVS     r1,#0x12              ;2528
002bf0  4608              MOV      r0,r1                 ;2528
002bf2  f7fffffe          BL       LCD_WriteReg
002bf6  2028              MOVS     r0,#0x28              ;2529
002bf8  f7fffffe          BL       delay_ms
002bfc  f2434120          MOV      r1,#0x3420            ;2530
002c00  2010              MOVS     r0,#0x10              ;2530
002c02  f7fffffe          BL       LCD_WriteReg
002c06  f2430138          MOV      r1,#0x3038            ;2531
002c0a  2013              MOVS     r0,#0x13              ;2531
002c0c  f7fffffe          BL       LCD_WriteReg
002c10  2046              MOVS     r0,#0x46              ;2532
002c12  f7fffffe          BL       delay_ms
002c16  2100              MOVS     r1,#0                 ;2533
002c18  2030              MOVS     r0,#0x30              ;2533
002c1a  f7fffffe          BL       LCD_WriteReg
002c1e  f2404102          MOV      r1,#0x402             ;2534
002c22  2031              MOVS     r0,#0x31              ;2534
002c24  f7fffffe          BL       LCD_WriteReg
002c28  f2403107          MOV      r1,#0x307             ;2535
002c2c  2032              MOVS     r0,#0x32              ;2535
002c2e  f7fffffe          BL       LCD_WriteReg
002c32  f44f7141          MOV      r1,#0x304             ;2536
002c36  2033              MOVS     r0,#0x33              ;2536
002c38  f7fffffe          BL       LCD_WriteReg
002c3c  2104              MOVS     r1,#4                 ;2537
002c3e  2034              MOVS     r0,#0x34              ;2537
002c40  f7fffffe          BL       LCD_WriteReg
002c44  f2404101          MOV      r1,#0x401             ;2538
002c48  2035              MOVS     r0,#0x35              ;2538
002c4a  f7fffffe          BL       LCD_WriteReg
002c4e  4639              MOV      r1,r7                 ;2539
002c50  2036              MOVS     r0,#0x36              ;2539
002c52  f7fffffe          BL       LCD_WriteReg
002c56  f2403105          MOV      r1,#0x305             ;2540
002c5a  2037              MOVS     r0,#0x37              ;2540
002c5c  f7fffffe          BL       LCD_WriteReg
002c60  f44f63c2          MOV      r3,#0x610             ;2541
002c64  4619              MOV      r1,r3                 ;2541
002c66  2038              MOVS     r0,#0x38              ;2541
002c68  f7fffffe          BL       LCD_WriteReg
002c6c  4619              MOV      r1,r3                 ;2542
002c6e  2039              MOVS     r0,#0x39              ;2542
002c70  f7fffffe          BL       LCD_WriteReg
002c74  4631              MOV      r1,r6                 ;2544
002c76  2001              MOVS     r0,#1                 ;2544
002c78  f7fffffe          BL       LCD_WriteReg
002c7c  4659              MOV      r1,r11                ;2545
002c7e  2002              MOVS     r0,#2                 ;2545
002c80  f7fffffe          BL       LCD_WriteReg
002c84  f2410130          MOV      r1,#0x1030            ;2546
002c88  2003              MOVS     r0,#3                 ;2546
002c8a  f7fffffe          BL       LCD_WriteReg
002c8e  f6400108          MOV      r1,#0x808             ;2547
002c92  2008              MOVS     r0,#8                 ;2547
002c94  f7fffffe          BL       LCD_WriteReg
002c98  2108              MOVS     r1,#8                 ;2548
002c9a  200a              MOVS     r0,#0xa               ;2548
002c9c  f7fffffe          BL       LCD_WriteReg
002ca0  f44f511c          MOV      r1,#0x2700            ;2549
002ca4  2060              MOVS     r0,#0x60              ;2549
002ca6  f7fffffe          BL       LCD_WriteReg
002caa  2101              MOVS     r1,#1                 ;2550
002cac  2061              MOVS     r0,#0x61              ;2550
002cae  f7fffffe          BL       LCD_WriteReg
002cb2  f44f719f          MOV      r1,#0x13e             ;2551
002cb6  2090              MOVS     r0,#0x90              ;2551
002cb8  f7fffffe          BL       LCD_WriteReg
002cbc  4631              MOV      r1,r6                 ;2552
002cbe  2092              MOVS     r0,#0x92              ;2552
002cc0  f7fffffe          BL       LCD_WriteReg
002cc4  4631              MOV      r1,r6                 ;2553
002cc6  2093              MOVS     r0,#0x93              ;2553
002cc8  f7fffffe          BL       LCD_WriteReg
002ccc  f44f5140          MOV      r1,#0x3000            ;2554
002cd0  20a0              MOVS     r0,#0xa0              ;2554
002cd2  f7fffffe          BL       LCD_WriteReg
002cd6  2110              MOVS     r1,#0x10              ;2555
002cd8  20a3              MOVS     r0,#0xa3              ;2555
002cda  f7fffffe          BL       LCD_WriteReg
002cde  2101              MOVS     r1,#1                 ;2556
002ce0  2007              MOVS     r0,#7                 ;2556
002ce2  f7fffffe          BL       LCD_WriteReg
002ce6  2121              MOVS     r1,#0x21              ;2557
002ce8  2007              MOVS     r0,#7                 ;2557
002cea  f7fffffe          BL       LCD_WriteReg
002cee  2123              MOVS     r1,#0x23              ;2558
002cf0  2007              MOVS     r0,#7                 ;2558
002cf2  f7fffffe          BL       LCD_WriteReg
002cf6  2133              MOVS     r1,#0x33              ;2559
002cf8  2007              MOVS     r0,#7                 ;2559
                  |L13.11514|
002cfa  f7fffffe          BL       LCD_WriteReg
002cfe  f2401133          MOV      r1,#0x133             ;2560
002d02  e69e              B        |L13.10818|
                  |L13.11524|
;;;2562   	{
;;;2563   		LCD_WR_REG(0xE2);		//Set PLL with OSC = 10MHz (hardware),	Multiplier N = 35, 250MHz < VCO < 800MHz = OSC*(N+1), VCO = 300MHz
002d04  20e2              MOVS     r0,#0xe2
002d06  8020              STRH     r0,[r4,#0]
;;;2564   		LCD_WR_DATA(0x1D);		//参数1 
002d08  201d              MOVS     r0,#0x1d
002d0a  8028              STRH     r0,[r5,#0]
;;;2565   		LCD_WR_DATA(0x02);		//参数2 Divider M = 2, PLL = 300/(M+1) = 100MHz
002d0c  2002              MOVS     r0,#2
002d0e  8028              STRH     r0,[r5,#0]
;;;2566   		LCD_WR_DATA(0x04);		//参数3 Validate M and N values   
002d10  2004              MOVS     r0,#4
002d12  8028              STRH     r0,[r5,#0]
;;;2567   		delay_us(100);
002d14  2064              MOVS     r0,#0x64
002d16  f7fffffe          BL       delay_us
;;;2568   		LCD_WR_REG(0xE0);		// Start PLL command
002d1a  20e0              MOVS     r0,#0xe0
002d1c  8020              STRH     r0,[r4,#0]
;;;2569   		LCD_WR_DATA(0x01);		// enable PLL
002d1e  2001              MOVS     r0,#1
002d20  8028              STRH     r0,[r5,#0]
;;;2570   		delay_ms(10);
002d22  200a              MOVS     r0,#0xa
002d24  f7fffffe          BL       delay_ms
;;;2571   		LCD_WR_REG(0xE0);		// Start PLL command again
002d28  20e0              MOVS     r0,#0xe0
002d2a  8020              STRH     r0,[r4,#0]
;;;2572   		LCD_WR_DATA(0x03);		// now, use PLL output as system clock	
002d2c  2003              MOVS     r0,#3
002d2e  8028              STRH     r0,[r5,#0]
;;;2573   		delay_ms(12);  
002d30  200c              MOVS     r0,#0xc
002d32  f7fffffe          BL       delay_ms
;;;2574   		LCD_WR_REG(0x01);		//软复位
002d36  2001              MOVS     r0,#1
002d38  8020              STRH     r0,[r4,#0]
;;;2575   		delay_ms(10);
002d3a  200a              MOVS     r0,#0xa
002d3c  f7fffffe          BL       delay_ms
;;;2576   		
;;;2577   		LCD_WR_REG(0xE6);		//设置像素频率,33Mhz
002d40  20e6              MOVS     r0,#0xe6
002d42  8020              STRH     r0,[r4,#0]
;;;2578   		LCD_WR_DATA(0x2F);
002d44  202f              MOVS     r0,#0x2f
002d46  8028              STRH     r0,[r5,#0]
;;;2579   		LCD_WR_DATA(0xFF);
002d48  20ff              MOVS     r0,#0xff
002d4a  8028              STRH     r0,[r5,#0]
002d4c  8028              STRH     r0,[r5,#0]
;;;2580   		LCD_WR_DATA(0xFF);
;;;2581   		
;;;2582   		LCD_WR_REG(0xB0);		//设置LCD模式
002d4e  20b0              MOVS     r0,#0xb0
002d50  8020              STRH     r0,[r4,#0]
;;;2583   		LCD_WR_DATA(0x20);		//24位模式
002d52  2020              MOVS     r0,#0x20
002d54  8028              STRH     r0,[r5,#0]
;;;2584   		LCD_WR_DATA(0x00);		//TFT 模式 
002d56  2000              MOVS     r0,#0
002d58  8028              STRH     r0,[r5,#0]
;;;2585   	
;;;2586   		LCD_WR_DATA((SSD_HOR_RESOLUTION-1)>>8);//设置LCD水平像素
002d5a  2003              MOVS     r0,#3
002d5c  8028              STRH     r0,[r5,#0]
;;;2587   		LCD_WR_DATA(SSD_HOR_RESOLUTION-1);		 
002d5e  f240301f          MOV      r0,#0x31f
002d62  8028              STRH     r0,[r5,#0]
;;;2588   		LCD_WR_DATA((SSD_VER_RESOLUTION-1)>>8);//设置LCD垂直像素
002d64  2001              MOVS     r0,#1
002d66  8028              STRH     r0,[r5,#0]
;;;2589   		LCD_WR_DATA(SSD_VER_RESOLUTION-1);		 
002d68  f24010df          MOV      r0,#0x1df
002d6c  8028              STRH     r0,[r5,#0]
;;;2590   		LCD_WR_DATA(0x00);		//RGB序列 
002d6e  2000              MOVS     r0,#0
002d70  8028              STRH     r0,[r5,#0]
;;;2591   		
;;;2592   		LCD_WR_REG(0xB4);		//Set horizontal period
002d72  20b4              MOVS     r0,#0xb4
002d74  8020              STRH     r0,[r4,#0]
;;;2593   		LCD_WR_DATA((SSD_HT-1)>>8);
002d76  2004              MOVS     r0,#4
002d78  8028              STRH     r0,[r5,#0]
;;;2594   		LCD_WR_DATA(SSD_HT-1);
002d7a  f240401f          MOV      r0,#0x41f
002d7e  8028              STRH     r0,[r5,#0]
;;;2595   		LCD_WR_DATA(SSD_HPS>>8);
002d80  2000              MOVS     r0,#0
002d82  8028              STRH     r0,[r5,#0]
;;;2596   		LCD_WR_DATA(SSD_HPS);
002d84  202e              MOVS     r0,#0x2e
002d86  8028              STRH     r0,[r5,#0]
;;;2597   		LCD_WR_DATA(SSD_HOR_PULSE_WIDTH-1);
002d88  2000              MOVS     r0,#0
002d8a  8028              STRH     r0,[r5,#0]
002d8c  8028              STRH     r0,[r5,#0]
002d8e  8028              STRH     r0,[r5,#0]
002d90  8028              STRH     r0,[r5,#0]
;;;2598   		LCD_WR_DATA(0x00);
;;;2599   		LCD_WR_DATA(0x00);
;;;2600   		LCD_WR_DATA(0x00);
;;;2601   		LCD_WR_REG(0xB6);		//Set vertical period
002d92  20b6              MOVS     r0,#0xb6
002d94  8020              STRH     r0,[r4,#0]
;;;2602   		LCD_WR_DATA((SSD_VT-1)>>8);
002d96  2002              MOVS     r0,#2
002d98  8028              STRH     r0,[r5,#0]
;;;2603   		LCD_WR_DATA(SSD_VT-1);
002d9a  f44f7003          MOV      r0,#0x20c
002d9e  8028              STRH     r0,[r5,#0]
;;;2604   		LCD_WR_DATA(SSD_VPS>>8);
002da0  2000              MOVS     r0,#0
002da2  8028              STRH     r0,[r5,#0]
;;;2605   		LCD_WR_DATA(SSD_VPS);
002da4  2017              MOVS     r0,#0x17
002da6  8028              STRH     r0,[r5,#0]
;;;2606   		LCD_WR_DATA(SSD_VER_FRONT_PORCH-1);
002da8  2015              MOVS     r0,#0x15
002daa  8028              STRH     r0,[r5,#0]
;;;2607   		LCD_WR_DATA(0x00);
002dac  2000              MOVS     r0,#0
002dae  8028              STRH     r0,[r5,#0]
002db0  8028              STRH     r0,[r5,#0]
;;;2608   		LCD_WR_DATA(0x00);
;;;2609   		
;;;2610   		LCD_WR_REG(0xF0);	//设置SSD1963与CPU接口为16bit  
002db2  20f0              MOVS     r0,#0xf0
002db4  8020              STRH     r0,[r4,#0]
;;;2611   		LCD_WR_DATA(0x03);	//16-bit(565 format) data for 16bpp 
002db6  2003              MOVS     r0,#3
002db8  8028              STRH     r0,[r5,#0]
;;;2612   
;;;2613   		LCD_WR_REG(0x29);	//开启显示
002dba  2029              MOVS     r0,#0x29
002dbc  8020              STRH     r0,[r4,#0]
;;;2614   		//设置PWM输出  背光通过占空比可调 
;;;2615   		LCD_WR_REG(0xD0);	//设置自动白平衡DBC
002dbe  20d0              MOVS     r0,#0xd0
002dc0  8020              STRH     r0,[r4,#0]
;;;2616   		LCD_WR_DATA(0x00);	//disable
002dc2  2000              MOVS     r0,#0
002dc4  8028              STRH     r0,[r5,#0]
;;;2617   	
;;;2618   		LCD_WR_REG(0xBE);	//配置PWM输出
002dc6  20be              MOVS     r0,#0xbe
002dc8  8020              STRH     r0,[r4,#0]
;;;2619   		LCD_WR_DATA(0x05);	//1设置PWM频率
002dca  2005              MOVS     r0,#5
002dcc  8028              STRH     r0,[r5,#0]
;;;2620   		LCD_WR_DATA(0xFE);	//2设置PWM占空比
002dce  20fe              MOVS     r0,#0xfe
002dd0  8028              STRH     r0,[r5,#0]
;;;2621   		LCD_WR_DATA(0x01);	//3设置C
002dd2  2001              MOVS     r0,#1
002dd4  8028              STRH     r0,[r5,#0]
;;;2622   		LCD_WR_DATA(0x00);	//4设置D
002dd6  2000              MOVS     r0,#0
002dd8  8028              STRH     r0,[r5,#0]
002dda  8028              STRH     r0,[r5,#0]
002ddc  8028              STRH     r0,[r5,#0]
;;;2623   		LCD_WR_DATA(0x00);	//5设置E 
;;;2624   		LCD_WR_DATA(0x00);	//6设置F 
;;;2625   		
;;;2626   		LCD_WR_REG(0xB8);	//设置GPIO配置
002dde  20b8              MOVS     r0,#0xb8
002de0  8020              STRH     r0,[r4,#0]
;;;2627   		LCD_WR_DATA(0x03);	//2个IO口设置成输出
002de2  2003              MOVS     r0,#3
002de4  8028              STRH     r0,[r5,#0]
;;;2628   		LCD_WR_DATA(0x01);	//GPIO使用正常的IO功能 
002de6  2001              MOVS     r0,#1
002de8  8028              STRH     r0,[r5,#0]
;;;2629   		LCD_WR_REG(0xBA);
002dea  20ba              MOVS     r0,#0xba
002dec  8020              STRH     r0,[r4,#0]
;;;2630   		LCD_WR_DATA(0X01);	//GPIO[1:0]=01,控制LCD方向
002dee  2001              MOVS     r0,#1
002df0  8028              STRH     r0,[r5,#0]
;;;2631   		
;;;2632   		LCD_SSD_BackLightSet(100);//背光设置为最亮
002df2  2064              MOVS     r0,#0x64
002df4  f7fffffe          BL       LCD_SSD_BackLightSet
                  |L13.11768|
;;;2633   	}		 
;;;2634   	LCD_Display_Dir(0);		//默认为竖屏
002df8  2000              MOVS     r0,#0
002dfa  f7fffffe          BL       LCD_Display_Dir
;;;2635   	LCD_LED=1;				//点亮背光
002dfe  4905              LDR      r1,|L13.11796|
002e00  2001              MOVS     r0,#1
002e02  f8c10180          STR      r0,[r1,#0x180]
;;;2636   	LCD_Clear(WHITE);
002e06  4640              MOV      r0,r8
002e08  f7fffffe          BL       LCD_Clear
;;;2637   }  
002e0c  b01f              ADD      sp,sp,#0x7c
002e0e  e8bd8ff0          POP      {r4-r11,pc}
;;;2638   //清屏函数
                          ENDP

002e12  0000              DCW      0x0000
                  |L13.11796|
                          DCD      0x42218000

                          AREA ||i.LCD_Pow||, CODE, READONLY, ALIGN=1

                  LCD_Pow PROC
;;;2820   //返回值:m^n次方.
;;;2821   u32 LCD_Pow(u8 m,u8 n)
000000  4603              MOV      r3,r0
;;;2822   {
;;;2823   	u32 result=1;	 
000002  2001              MOVS     r0,#1
000004  e000              B        |L14.8|
                  |L14.6|
;;;2824   	while(n--)result*=m;    
000006  4358              MULS     r0,r3,r0
                  |L14.8|
000008  1e49              SUBS     r1,r1,#1
00000a  b2c9              UXTB     r1,r1
00000c  d2fb              BCS      |L14.6|
;;;2825   	return result;
;;;2826   }			 
00000e  4770              BX       lr
;;;2827   //显示数字,高位为0,则不显示
                          ENDP


                          AREA ||i.LCD_RD_DATA||, CODE, READONLY, ALIGN=2

                  LCD_RD_DATA PROC
;;;99     //返回值:读到的值
;;;100    u16 LCD_RD_DATA(void)
000000  4803              LDR      r0,|L15.16|
;;;101    {
000002  b508              PUSH     {r3,lr}
;;;102    	vu16 ram;			//防止被优化
;;;103    	ram=LCD->LCD_RAM;	
000004  8800              LDRH     r0,[r0,#0]
000006  f8ad0000          STRH     r0,[sp,#0]
;;;104    	return ram;	 
00000a  f8bd0000          LDRH     r0,[sp,#0]
;;;105    }					   
00000e  bd08              POP      {r3,pc}
;;;106    //写寄存器
                          ENDP

                  |L15.16|
                          DCD      0x6c000800

                          AREA ||i.LCD_ReadPoint||, CODE, READONLY, ALIGN=2

                  LCD_ReadPoint PROC
;;;155    //返回值:此点的颜色
;;;156    u16 LCD_ReadPoint(u16 x,u16 y)
000000  e92d41f0          PUSH     {r4-r8,lr}
;;;157    {
;;;158     	u16 r=0,g=0,b=0;
;;;159    	if(x>=lcddev.width||y>=lcddev.height)return 0;	//超过了范围,直接返回		   
000004  4e3e              LDR      r6,|L16.256|
000006  2400              MOVS     r4,#0                 ;158
000008  4625              MOV      r5,r4                 ;158
00000a  8832              LDRH     r2,[r6,#0]  ; lcddev
00000c  4282              CMP      r2,r0
00000e  d902              BLS      |L16.22|
000010  8872              LDRH     r2,[r6,#2]  ; lcddev
000012  428a              CMP      r2,r1
000014  d802              BHI      |L16.28|
                  |L16.22|
000016  2000              MOVS     r0,#0
                  |L16.24|
;;;160    	LCD_SetCursor(x,y);	    
;;;161    	if(lcddev.id==0X9341||lcddev.id==0X6804||lcddev.id==0X5310||lcddev.id==0X1963)LCD_WR_REG(0X2E);//9341/6804/3510/1963 发送读GRAM指令
;;;162    	else if(lcddev.id==0X5510)LCD_WR_REG(0X2E00);	//5510 发送读GRAM指令
;;;163    	else LCD_WR_REG(0X22);      		 			//其他IC发送读GRAM指令
;;;164    	if(lcddev.id==0X9320)opt_delay(2);				//FOR 9320,延时2us	    
;;;165     	r=LCD_RD_DATA();								//dummy Read	   
;;;166    	if(lcddev.id==0X1963)return r;					//1963直接读就可以 
;;;167    	opt_delay(2);	  
;;;168     	r=LCD_RD_DATA();  		  						//实际坐标颜色
;;;169     	if(lcddev.id==0X9341||lcddev.id==0X5310||lcddev.id==0X5510)		//9341/NT35310/NT35510要分2次读出
;;;170     	{
;;;171    		opt_delay(2);	  
;;;172    		b=LCD_RD_DATA(); 
;;;173    		g=r&0XFF;		//对于9341/5310/5510,第一次读取的是RG的值,R在前,G在后,各占8位
;;;174    		g<<=8;
;;;175    	} 
;;;176    	if(lcddev.id==0X9325||lcddev.id==0X4535||lcddev.id==0X4531||lcddev.id==0XB505||lcddev.id==0XC505)return r;	//这几种IC直接返回颜色值
;;;177    	else if(lcddev.id==0X9341||lcddev.id==0X5310||lcddev.id==0X5510)return (((r>>11)<<11)|((g>>10)<<5)|(b>>11));//ILI9341/NT35310/NT35510需要公式转换一下
;;;178    	else return LCD_BGR2RGB(r);						//其他IC
;;;179    }			 
000018  e8bd81f0          POP      {r4-r8,pc}
                  |L16.28|
00001c  f7fffffe          BL       LCD_SetCursor
000020  88b0              LDRH     r0,[r6,#4]            ;161  ; lcddev
000022  f2493841          MOV      r8,#0x9341            ;161
000026  4b37              LDR      r3,|L16.260|
000028  f6411763          MOV      r7,#0x1963            ;161
00002c  f2453110          MOV      r1,#0x5310            ;161
000030  f2455210          MOV      r2,#0x5510            ;162
000034  4540              CMP      r0,r8                 ;161
000036  d008              BEQ      |L16.74|
000038  f5a04cd0          SUB      r12,r0,#0x6800        ;161
00003c  f1bc0c04          SUBS     r12,r12,#4            ;161
000040  d003              BEQ      |L16.74|
000042  4288              CMP      r0,r1                 ;161
000044  d001              BEQ      |L16.74|
000046  42b8              CMP      r0,r7                 ;161
000048  d102              BNE      |L16.80|
                  |L16.74|
00004a  f04f0c2e          MOV      r12,#0x2e             ;161
00004e  e006              B        |L16.94|
                  |L16.80|
000050  4290              CMP      r0,r2                 ;162
000052  d102              BNE      |L16.90|
000054  f44f5c38          MOV      r12,#0x2e00           ;162
000058  e001              B        |L16.94|
                  |L16.90|
00005a  f04f0c22          MOV      r12,#0x22             ;163
                  |L16.94|
00005e  f8a3c000          STRH     r12,[r3,#0]           ;163
000062  f5a04313          SUB      r3,r0,#0x9300         ;164
000066  3b20              SUBS     r3,r3,#0x20           ;164
000068  d103              BNE      |L16.114|
00006a  2002              MOVS     r0,#2                 ;164
                  |L16.108|
00006c  1e40              SUBS     r0,r0,#1              ;164
00006e  b2c0              UXTB     r0,r0                 ;164
000070  d2fc              BCS      |L16.108|
                  |L16.114|
000072  f7fffffe          BL       LCD_RD_DATA
000076  88b3              LDRH     r3,[r6,#4]            ;166  ; lcddev
000078  42bb              CMP      r3,r7                 ;166
00007a  d0cd              BEQ      |L16.24|
00007c  2002              MOVS     r0,#2                 ;167
                  |L16.126|
00007e  1e40              SUBS     r0,r0,#1              ;167
000080  b2c0              UXTB     r0,r0                 ;167
000082  d2fc              BCS      |L16.126|
000084  f7fffffe          BL       LCD_RD_DATA
000088  4607              MOV      r7,r0                 ;168
00008a  88b0              LDRH     r0,[r6,#4]            ;169  ; lcddev
00008c  4540              CMP      r0,r8                 ;169
00008e  d003              BEQ      |L16.152|
000090  4288              CMP      r0,r1                 ;169
000092  d001              BEQ      |L16.152|
000094  4290              CMP      r0,r2                 ;169
000096  d10b              BNE      |L16.176|
                  |L16.152|
000098  2002              MOVS     r0,#2                 ;171
                  |L16.154|
00009a  1e40              SUBS     r0,r0,#1              ;171
00009c  b2c0              UXTB     r0,r0                 ;171
00009e  d2fc              BCS      |L16.154|
0000a0  f7fffffe          BL       LCD_RD_DATA
0000a4  4605              MOV      r5,r0                 ;172
0000a6  b2f8              UXTB     r0,r7                 ;173
0000a8  f64f73ff          MOV      r3,#0xffff            ;174
0000ac  ea032400          AND      r4,r3,r0,LSL #8       ;174
                  |L16.176|
0000b0  88b0              LDRH     r0,[r6,#4]            ;176  ; lcddev
0000b2  f5a04313          SUB      r3,r0,#0x9300         ;176
0000b6  3b25              SUBS     r3,r3,#0x25           ;176
0000b8  d01a              BEQ      |L16.240|
0000ba  f5a0438a          SUB      r3,r0,#0x4500         ;176
0000be  3b35              SUBS     r3,r3,#0x35           ;176
0000c0  d016              BEQ      |L16.240|
0000c2  1d1b              ADDS     r3,r3,#4              ;176
0000c4  d014              BEQ      |L16.240|
0000c6  f5a04335          SUB      r3,r0,#0xb500         ;176
0000ca  3b05              SUBS     r3,#5                 ;176
0000cc  d010              BEQ      |L16.240|
0000ce  f5b35380          SUBS     r3,r3,#0x1000         ;176
0000d2  d00d              BEQ      |L16.240|
0000d4  4540              CMP      r0,r8                 ;177
0000d6  d003              BEQ      |L16.224|
0000d8  4288              CMP      r0,r1                 ;177
0000da  d001              BEQ      |L16.224|
0000dc  4290              CMP      r0,r2                 ;177
0000de  d109              BNE      |L16.244|
                  |L16.224|
0000e0  0af8              LSRS     r0,r7,#11             ;177
0000e2  02c0              LSLS     r0,r0,#11             ;177
0000e4  0aa1              LSRS     r1,r4,#10             ;177
0000e6  ea401041          ORR      r0,r0,r1,LSL #5       ;177
0000ea  ea4020d5          ORR      r0,r0,r5,LSR #11      ;177
0000ee  e793              B        |L16.24|
                  |L16.240|
0000f0  4638              MOV      r0,r7                 ;176
0000f2  e791              B        |L16.24|
                  |L16.244|
0000f4  4638              MOV      r0,r7                 ;178
0000f6  e8bd41f0          POP      {r4-r8,lr}            ;178
0000fa  f7ffbffe          B.W      LCD_BGR2RGB
;;;180    //LCD开启显示
                          ENDP

0000fe  0000              DCW      0x0000
                  |L16.256|
                          DCD      ||.bss||
                  |L16.260|
                          DCD      0x6c0007fe

                          AREA ||i.LCD_ReadReg||, CODE, READONLY, ALIGN=2

                  LCD_ReadReg PROC
;;;116    //返回值:读到的数据
;;;117    u16 LCD_ReadReg(u16 LCD_Reg)
000000  4904              LDR      r1,|L17.20|
;;;118    {										   
000002  b510              PUSH     {r4,lr}
000004  8008              STRH     r0,[r1,#0]
;;;119    	LCD_WR_REG(LCD_Reg);		//写入要读的寄存器序号
;;;120    	delay_us(5);		  
000006  2005              MOVS     r0,#5
000008  f7fffffe          BL       delay_us
;;;121    	return LCD_RD_DATA();		//返回读到的值
00000c  e8bd4010          POP      {r4,lr}
000010  f7ffbffe          B.W      LCD_RD_DATA
;;;122    }   
;;;123    //开始写GRAM
                          ENDP

                  |L17.20|
                          DCD      0x6c0007fe

                          AREA ||i.LCD_SSD_BackLightSet||, CODE, READONLY, ALIGN=2

                  LCD_SSD_BackLightSet PROC
;;;426    //pwm:背光等级,0~100.越大越亮.
;;;427    void LCD_SSD_BackLightSet(u8 pwm)
000000  4a0c              LDR      r2,|L18.52|
;;;428    {	
000002  b510              PUSH     {r4,lr}
;;;429    	LCD_WR_REG(0xBE);	//配置PWM输出
000004  21be              MOVS     r1,#0xbe
000006  8011              STRH     r1,[r2,#0]
000008  1c94              ADDS     r4,r2,#2
;;;430    	LCD_WR_DATA(0x05);	//1设置PWM频率
00000a  2105              MOVS     r1,#5
00000c  8021              STRH     r1,[r4,#0]
;;;431    	LCD_WR_DATA(pwm*2.55);//2设置PWM占空比
00000e  f7fffffe          BL       __aeabi_ui2d
000012  f04f3266          MOV      r2,#0x66666666
000016  4b08              LDR      r3,|L18.56|
000018  f7fffffe          BL       __aeabi_dmul
00001c  f7fffffe          BL       __aeabi_d2uiz
000020  8020              STRH     r0,[r4,#0]
;;;432    	LCD_WR_DATA(0x01);	//3设置C
000022  2001              MOVS     r0,#1
000024  8020              STRH     r0,[r4,#0]
;;;433    	LCD_WR_DATA(0xFF);	//4设置D
000026  20ff              MOVS     r0,#0xff
000028  8020              STRH     r0,[r4,#0]
;;;434    	LCD_WR_DATA(0x00);	//5设置E
00002a  2000              MOVS     r0,#0
00002c  8020              STRH     r0,[r4,#0]
00002e  8020              STRH     r0,[r4,#0]
;;;435    	LCD_WR_DATA(0x00);	//6设置F
;;;436    }
000030  bd10              POP      {r4,pc}
;;;437    
                          ENDP

000032  0000              DCW      0x0000
                  |L18.52|
                          DCD      0x6c0007fe
                  |L18.56|
                          DCD      0x40046666

                          AREA ||i.LCD_Scan_Dir||, CODE, READONLY, ALIGN=2

                  LCD_Scan_Dir PROC
;;;247    //9320/9325/9328/4531/4535/1505/b505/5408/9341/5310/5510/1963等IC已经实际测试	   	   
;;;248    void LCD_Scan_Dir(u8 dir)
000000  b5f0              PUSH     {r4-r7,lr}
;;;249    {
;;;250    	u16 regval=0;
;;;251    	u16 dirreg=0;
;;;252    	u16 temp;  
;;;253    	if((lcddev.dir==1&&lcddev.id!=0X6804&&lcddev.id!=0X1963)||(lcddev.dir==0&&lcddev.id==0X1963))//横屏时，对6804和1963不改变扫描方向！竖屏时1963改变方向
000002  4e67              LDR      r6,|L19.416|
000004  2300              MOVS     r3,#0                 ;250
000006  4631              MOV      r1,r6
000008  79b2              LDRB     r2,[r6,#6]  ; lcddev
00000a  8889              LDRH     r1,[r1,#4]
00000c  f6460704          MOV      r7,#0x6804
000010  f6411463          MOV      r4,#0x1963
000014  2a01              CMP      r2,#1
000016  d001              BEQ      |L19.28|
000018  b12a              CBZ      r2,|L19.38|
00001a  e01d              B        |L19.88|
                  |L19.28|
00001c  42b9              CMP      r1,r7
00001e  d01b              BEQ      |L19.88|
000020  42a1              CMP      r1,r4
000022  d102              BNE      |L19.42|
000024  e018              B        |L19.88|
                  |L19.38|
000026  42a1              CMP      r1,r4
000028  d116              BNE      |L19.88|
                  |L19.42|
;;;254    	{			   
;;;255    		switch(dir)//方向转换
00002a  2808              CMP      r0,#8
00002c  d214              BCS      |L19.88|
00002e  e8dff000          TBB      [pc,r0]
000032  0406              DCB      0x04,0x06
000034  080a0c0e          DCB      0x08,0x0a,0x0c,0x0e
000038  1012              DCB      0x10,0x12
;;;256    		{
;;;257    			case 0:dir=6;break;
00003a  2006              MOVS     r0,#6
00003c  e00c              B        |L19.88|
;;;258    			case 1:dir=7;break;
00003e  2007              MOVS     r0,#7
000040  e00a              B        |L19.88|
;;;259    			case 2:dir=4;break;
000042  2004              MOVS     r0,#4
000044  e008              B        |L19.88|
;;;260    			case 3:dir=5;break;
000046  2005              MOVS     r0,#5
000048  e006              B        |L19.88|
;;;261    			case 4:dir=1;break;
00004a  2001              MOVS     r0,#1
00004c  e004              B        |L19.88|
;;;262    			case 5:dir=0;break;
00004e  2000              MOVS     r0,#0
000050  e002              B        |L19.88|
;;;263    			case 6:dir=3;break;
000052  2003              MOVS     r0,#3
000054  e000              B        |L19.88|
;;;264    			case 7:dir=2;break;	     
000056  2002              MOVS     r0,#2
                  |L19.88|
;;;265    		}
;;;266    	} 
;;;267    	if(lcddev.id==0x9341||lcddev.id==0X6804||lcddev.id==0X5310||lcddev.id==0X5510||lcddev.id==0X1963)//9341/6804/5310/5510/1963,特殊处理
000058  f5a14c13          SUB      r12,r1,#0x9300
00005c  f2453210          MOV      r2,#0x5310
000060  f2455510          MOV      r5,#0x5510
000064  f1bc0c41          SUBS     r12,r12,#0x41
000068  d007              BEQ      |L19.122|
00006a  42b9              CMP      r1,r7
00006c  d005              BEQ      |L19.122|
00006e  4291              CMP      r1,r2
000070  d003              BEQ      |L19.122|
000072  42a9              CMP      r1,r5
000074  d001              BEQ      |L19.122|
000076  42a1              CMP      r1,r4
000078  d175              BNE      |L19.358|
                  |L19.122|
;;;268    	{
;;;269    		switch(dir)
00007a  2808              CMP      r0,#8
00007c  d212              BCS      |L19.164|
00007e  e8dff000          TBB      [pc,r0]
000082  1104              DCB      0x11,0x04
000084  06080a0c          DCB      0x06,0x08,0x0a,0x0c
000088  0e10              DCB      0x0e,0x10
;;;270    		{
;;;271    			case L2R_U2D://从左到右,从上到下
;;;272    				regval|=(0<<7)|(0<<6)|(0<<5); 
;;;273    				break;
;;;274    			case L2R_D2U://从左到右,从下到上
;;;275    				regval|=(1<<7)|(0<<6)|(0<<5); 
00008a  2380              MOVS     r3,#0x80
;;;276    				break;
00008c  e00a              B        |L19.164|
;;;277    			case R2L_U2D://从右到左,从上到下
;;;278    				regval|=(0<<7)|(1<<6)|(0<<5); 
00008e  2340              MOVS     r3,#0x40
;;;279    				break;
000090  e008              B        |L19.164|
;;;280    			case R2L_D2U://从右到左,从下到上
;;;281    				regval|=(1<<7)|(1<<6)|(0<<5); 
000092  23c0              MOVS     r3,#0xc0
;;;282    				break;	 
000094  e006              B        |L19.164|
;;;283    			case U2D_L2R://从上到下,从左到右
;;;284    				regval|=(0<<7)|(0<<6)|(1<<5); 
000096  2320              MOVS     r3,#0x20
;;;285    				break;
000098  e004              B        |L19.164|
;;;286    			case U2D_R2L://从上到下,从右到左
;;;287    				regval|=(0<<7)|(1<<6)|(1<<5); 
00009a  2360              MOVS     r3,#0x60
;;;288    				break;
00009c  e002              B        |L19.164|
;;;289    			case D2U_L2R://从下到上,从左到右
;;;290    				regval|=(1<<7)|(0<<6)|(1<<5); 
00009e  23a0              MOVS     r3,#0xa0
;;;291    				break;
0000a0  e000              B        |L19.164|
;;;292    			case D2U_R2L://从下到上,从右到左
;;;293    				regval|=(1<<7)|(1<<6)|(1<<5); 
0000a2  23e0              MOVS     r3,#0xe0
                  |L19.164|
;;;294    				break;	 
;;;295    		}
;;;296    		if(lcddev.id==0X5510)dirreg=0X3600;
0000a4  42a9              CMP      r1,r5
0000a6  d102              BNE      |L19.174|
0000a8  f44f5058          MOV      r0,#0x3600
0000ac  e000              B        |L19.176|
                  |L19.174|
;;;297    		else dirreg=0X36;
0000ae  2036              MOVS     r0,#0x36
                  |L19.176|
;;;298     		if((lcddev.id!=0X5310)&&(lcddev.id!=0X5510)&&(lcddev.id!=0X1963))regval|=0X08;//5310/5510/1963不需要BGR   
0000b0  4291              CMP      r1,r2
0000b2  d005              BEQ      |L19.192|
0000b4  42a9              CMP      r1,r5
0000b6  d003              BEQ      |L19.192|
0000b8  42a1              CMP      r1,r4
0000ba  d001              BEQ      |L19.192|
0000bc  f0430308          ORR      r3,r3,#8
                  |L19.192|
;;;299    		if(lcddev.id==0X6804)regval|=0x02;//6804的BIT6和9341的反了	   
0000c0  42b9              CMP      r1,r7
0000c2  d101              BNE      |L19.200|
0000c4  f0430302          ORR      r3,r3,#2
                  |L19.200|
;;;300    		LCD_WriteReg(dirreg,regval);
0000c8  4619              MOV      r1,r3
0000ca  f7fffffe          BL       LCD_WriteReg
;;;301    		if(lcddev.id!=0X1963)//1963不做坐标处理
0000ce  88b2              LDRH     r2,[r6,#4]  ; lcddev
0000d0  42a2              CMP      r2,r4
0000d2  d00a              BEQ      |L19.234|
;;;302    		{
;;;303    			if(regval&0X20)
0000d4  0698              LSLS     r0,r3,#26
;;;304    			{
;;;305    				if(lcddev.width<lcddev.height)//交换X,Y
;;;306    				{
;;;307    					temp=lcddev.width;
;;;308    					lcddev.width=lcddev.height;
;;;309    					lcddev.height=temp;
;;;310    				}
;;;311    			}else  
;;;312    			{
;;;313    				if(lcddev.width>lcddev.height)//交换X,Y
0000d6  8830              LDRH     r0,[r6,#0]  ; lcddev
0000d8  8871              LDRH     r1,[r6,#2]  ; lcddev
0000da  d502              BPL      |L19.226|
0000dc  4288              CMP      r0,r1                 ;305
0000de  d302              BCC      |L19.230|
0000e0  e003              B        |L19.234|
                  |L19.226|
0000e2  4288              CMP      r0,r1
0000e4  d901              BLS      |L19.234|
                  |L19.230|
;;;314    				{
;;;315    					temp=lcddev.width;
;;;316    					lcddev.width=lcddev.height;
0000e6  8031              STRH     r1,[r6,#0]
;;;317    					lcddev.height=temp;
0000e8  8070              STRH     r0,[r6,#2]
                  |L19.234|
0000ea  482e              LDR      r0,|L19.420|
0000ec  1c81              ADDS     r1,r0,#2
;;;318    				}
;;;319    			}  
;;;320    		}
;;;321    		if(lcddev.id==0X5510)
0000ee  42aa              CMP      r2,r5
;;;322    		{
;;;323    			LCD_WR_REG(lcddev.setxcmd);LCD_WR_DATA(0); 
;;;324    			LCD_WR_REG(lcddev.setxcmd+1);LCD_WR_DATA(0); 
;;;325    			LCD_WR_REG(lcddev.setxcmd+2);LCD_WR_DATA((lcddev.width-1)>>8); 
;;;326    			LCD_WR_REG(lcddev.setxcmd+3);LCD_WR_DATA((lcddev.width-1)&0XFF); 
;;;327    			LCD_WR_REG(lcddev.setycmd);LCD_WR_DATA(0); 
;;;328    			LCD_WR_REG(lcddev.setycmd+1);LCD_WR_DATA(0); 
;;;329    			LCD_WR_REG(lcddev.setycmd+2);LCD_WR_DATA((lcddev.height-1)>>8); 
;;;330    			LCD_WR_REG(lcddev.setycmd+3);LCD_WR_DATA((lcddev.height-1)&0XFF);
;;;331    		}else
;;;332    		{
;;;333    			LCD_WR_REG(lcddev.setxcmd); 
0000f0  8972              LDRH     r2,[r6,#0xa]  ; lcddev
0000f2  8002              STRH     r2,[r0,#0]
0000f4  d121              BNE      |L19.314|
0000f6  2300              MOVS     r3,#0                 ;323
0000f8  800b              STRH     r3,[r1,#0]            ;323
0000fa  1c53              ADDS     r3,r2,#1              ;324
0000fc  8003              STRH     r3,[r0,#0]            ;324
0000fe  2300              MOVS     r3,#0                 ;324
000100  800b              STRH     r3,[r1,#0]            ;324
000102  1c93              ADDS     r3,r2,#2              ;325
000104  8003              STRH     r3,[r0,#0]            ;325
000106  8833              LDRH     r3,[r6,#0]            ;325  ; lcddev
000108  1e5b              SUBS     r3,r3,#1              ;325
00010a  0a1c              LSRS     r4,r3,#8              ;325
00010c  800c              STRH     r4,[r1,#0]            ;325
00010e  1cd2              ADDS     r2,r2,#3              ;325
000110  8002              STRH     r2,[r0,#0]            ;325
000112  b2da              UXTB     r2,r3                 ;326
000114  800a              STRH     r2,[r1,#0]            ;326
000116  89b2              LDRH     r2,[r6,#0xc]          ;327  ; lcddev
000118  8002              STRH     r2,[r0,#0]            ;327
00011a  2300              MOVS     r3,#0                 ;327
00011c  800b              STRH     r3,[r1,#0]            ;327
00011e  1c53              ADDS     r3,r2,#1              ;328
000120  8003              STRH     r3,[r0,#0]            ;328
000122  2300              MOVS     r3,#0                 ;328
000124  800b              STRH     r3,[r1,#0]            ;328
000126  1c93              ADDS     r3,r2,#2              ;329
000128  8003              STRH     r3,[r0,#0]            ;329
00012a  8873              LDRH     r3,[r6,#2]            ;329  ; lcddev
00012c  1e5b              SUBS     r3,r3,#1              ;329
00012e  0a1c              LSRS     r4,r3,#8              ;329
000130  800c              STRH     r4,[r1,#0]            ;329
000132  1cd2              ADDS     r2,r2,#3              ;329
000134  8002              STRH     r2,[r0,#0]            ;329
000136  b2d8              UXTB     r0,r3                 ;330
000138  e012              B        |L19.352|
                  |L19.314|
;;;334    			LCD_WR_DATA(0);LCD_WR_DATA(0);
00013a  2200              MOVS     r2,#0
00013c  800a              STRH     r2,[r1,#0]
00013e  800a              STRH     r2,[r1,#0]
;;;335    			LCD_WR_DATA((lcddev.width-1)>>8);LCD_WR_DATA((lcddev.width-1)&0XFF);
000140  8832              LDRH     r2,[r6,#0]  ; lcddev
000142  1e52              SUBS     r2,r2,#1
000144  0a13              LSRS     r3,r2,#8
000146  800b              STRH     r3,[r1,#0]
000148  b2d2              UXTB     r2,r2
00014a  800a              STRH     r2,[r1,#0]
;;;336    			LCD_WR_REG(lcddev.setycmd); 
00014c  89b2              LDRH     r2,[r6,#0xc]  ; lcddev
00014e  8002              STRH     r2,[r0,#0]
;;;337    			LCD_WR_DATA(0);LCD_WR_DATA(0);
000150  2000              MOVS     r0,#0
000152  8008              STRH     r0,[r1,#0]
000154  8008              STRH     r0,[r1,#0]
;;;338    			LCD_WR_DATA((lcddev.height-1)>>8);LCD_WR_DATA((lcddev.height-1)&0XFF);  
000156  8870              LDRH     r0,[r6,#2]  ; lcddev
000158  1e40              SUBS     r0,r0,#1
00015a  0a02              LSRS     r2,r0,#8
00015c  800a              STRH     r2,[r1,#0]
00015e  b2c0              UXTB     r0,r0
                  |L19.352|
000160  8008              STRH     r0,[r1,#0]
;;;339    		}
;;;340      	}else 
;;;341    	{
;;;342    		switch(dir)
;;;343    		{
;;;344    			case L2R_U2D://从左到右,从上到下
;;;345    				regval|=(1<<5)|(1<<4)|(0<<3); 
;;;346    				break;
;;;347    			case L2R_D2U://从左到右,从下到上
;;;348    				regval|=(0<<5)|(1<<4)|(0<<3); 
;;;349    				break;
;;;350    			case R2L_U2D://从右到左,从上到下
;;;351    				regval|=(1<<5)|(0<<4)|(0<<3);
;;;352    				break;
;;;353    			case R2L_D2U://从右到左,从下到上
;;;354    				regval|=(0<<5)|(0<<4)|(0<<3); 
;;;355    				break;	 
;;;356    			case U2D_L2R://从上到下,从左到右
;;;357    				regval|=(1<<5)|(1<<4)|(1<<3); 
;;;358    				break;
;;;359    			case U2D_R2L://从上到下,从右到左
;;;360    				regval|=(1<<5)|(0<<4)|(1<<3); 
;;;361    				break;
;;;362    			case D2U_L2R://从下到上,从左到右
;;;363    				regval|=(0<<5)|(1<<4)|(1<<3); 
;;;364    				break;
;;;365    			case D2U_R2L://从下到上,从右到左
;;;366    				regval|=(0<<5)|(0<<4)|(1<<3); 
;;;367    				break;	 
;;;368    		} 
;;;369    		dirreg=0X03;
;;;370    		regval|=1<<12; 
;;;371    		LCD_WriteReg(dirreg,regval);
;;;372    	}
;;;373    }     
000162  bdf0              POP      {r4-r7,pc}
000164  e7ff              B        |L19.358|
                  |L19.358|
000166  2808              CMP      r0,#8                 ;342
000168  d212              BCS      |L19.400|
00016a  e8dff000          TBB      [pc,r0]               ;342
00016e  0406              DCB      0x04,0x06
000170  08110a0c          DCB      0x08,0x11,0x0a,0x0c
000174  0e10              DCB      0x0e,0x10
000176  2330              MOVS     r3,#0x30              ;345
000178  e00a              B        |L19.400|
00017a  2310              MOVS     r3,#0x10              ;348
00017c  e008              B        |L19.400|
00017e  2320              MOVS     r3,#0x20              ;351
000180  e006              B        |L19.400|
000182  2338              MOVS     r3,#0x38              ;357
000184  e004              B        |L19.400|
000186  2328              MOVS     r3,#0x28              ;360
000188  e002              B        |L19.400|
00018a  2318              MOVS     r3,#0x18              ;363
00018c  e000              B        |L19.400|
00018e  2308              MOVS     r3,#8                 ;366
                  |L19.400|
000190  e8bd40f0          POP      {r4-r7,lr}            ;371
000194  2003              MOVS     r0,#3                 ;369
000196  f4435180          ORR      r1,r3,#0x1000         ;370
00019a  f7ffbffe          B.W      LCD_WriteReg
;;;374    //画点
                          ENDP

00019e  0000              DCW      0x0000
                  |L19.416|
                          DCD      ||.bss||
                  |L19.420|
                          DCD      0x6c0007fe

                          AREA ||i.LCD_SetCursor||, CODE, READONLY, ALIGN=2

                  LCD_SetCursor PROC
;;;196    //Ypos:纵坐标
;;;197    void LCD_SetCursor(u16 Xpos, u16 Ypos)
000000  e92d4ff0          PUSH     {r4-r11,lr}
;;;198    {	 
;;;199     	if(lcddev.id==0X9341||lcddev.id==0X5310)
000004  4f4e              LDR      r7,|L20.320|
000006  460b              MOV      r3,r1                 ;198
000008  463a              MOV      r2,r7
00000a  88bd              LDRH     r5,[r7,#4]  ; lcddev
;;;200    	{		    
;;;201    		LCD_WR_REG(lcddev.setxcmd); 
;;;202    		LCD_WR_DATA(Xpos>>8);LCD_WR_DATA(Xpos&0XFF); 			 
;;;203    		LCD_WR_REG(lcddev.setycmd); 
;;;204    		LCD_WR_DATA(Ypos>>8);LCD_WR_DATA(Ypos&0XFF); 		
00000c  0a0c              LSRS     r4,r1,#8
00000e  f8dfb134          LDR      r11,|L20.324|
000012  8991              LDRH     r1,[r2,#0xc]          ;203
000014  8952              LDRH     r2,[r2,#0xa]          ;201
000016  f5a54613          SUB      r6,r5,#0x9300         ;199
00001a  ea4f2c10          LSR      r12,r0,#8             ;202
00001e  f10b0a02          ADD      r10,r11,#2            ;202
000022  3e41              SUBS     r6,r6,#0x41           ;199
000024  d01d              BEQ      |L20.98|
000026  f5a546a6          SUB      r6,r5,#0x5300         ;199
00002a  3e10              SUBS     r6,r6,#0x10           ;199
00002c  d019              BEQ      |L20.98|
00002e  463e              MOV      r6,r7                 ;199
;;;205    	}else if(lcddev.id==0X6804)
000030  46be              MOV      lr,r7
;;;206    	{
;;;207    		if(lcddev.dir==1)Xpos=lcddev.width-1-Xpos;//横屏时处理
000032  f8969006          LDRB     r9,[r6,#6]
000036  8836              LDRH     r6,[r6,#0]
000038  f5a547d0          SUB      r7,r5,#0x6800         ;205
00003c  eba60800          SUB      r8,r6,r0
000040  f1a80801          SUB      r8,r8,#1
000044  3f04              SUBS     r7,#4                 ;205
000046  d017              BEQ      |L20.120|
;;;208    		LCD_WR_REG(lcddev.setxcmd); 
;;;209    		LCD_WR_DATA(Xpos>>8);LCD_WR_DATA(Xpos&0XFF); 
;;;210    		LCD_WR_REG(lcddev.setycmd); 
;;;211    		LCD_WR_DATA(Ypos>>8);LCD_WR_DATA(Ypos&0XFF); 
;;;212    	}else if(lcddev.id==0X1963)
000048  f5a557c8          SUB      r7,r5,#0x1900
00004c  3f63              SUBS     r7,r7,#0x63
00004e  d028              BEQ      |L20.162|
;;;213    	{  			 		
;;;214    		if(lcddev.dir==0)//x坐标需要变换
;;;215    		{
;;;216    			Xpos=lcddev.width-1-Xpos;
;;;217    			LCD_WR_REG(lcddev.setxcmd); 
;;;218    			LCD_WR_DATA(0);LCD_WR_DATA(0); 		
;;;219    			LCD_WR_DATA(Xpos>>8);LCD_WR_DATA(Xpos&0XFF);		 	 
;;;220    		}else
;;;221    		{
;;;222    			LCD_WR_REG(lcddev.setxcmd); 
;;;223    			LCD_WR_DATA(Xpos>>8);LCD_WR_DATA(Xpos&0XFF); 		
;;;224    			LCD_WR_DATA((lcddev.width-1)>>8);LCD_WR_DATA((lcddev.width-1)&0XFF);		 	 			
;;;225    		}	
;;;226    		LCD_WR_REG(lcddev.setycmd); 
;;;227    		LCD_WR_DATA(Ypos>>8);LCD_WR_DATA(Ypos&0XFF); 		
;;;228    		LCD_WR_DATA((lcddev.height-1)>>8);LCD_WR_DATA((lcddev.height-1)&0XFF); 			 		
;;;229    		
;;;230    	}else if(lcddev.id==0X5510)
000050  f5a547aa          SUB      r7,r5,#0x5500
000054  4676              MOV      r6,lr
000056  3f10              SUBS     r7,r7,#0x10
000058  d051              BEQ      |L20.254|
;;;231    	{
;;;232    		LCD_WR_REG(lcddev.setxcmd);LCD_WR_DATA(Xpos>>8); 		
;;;233    		LCD_WR_REG(lcddev.setxcmd+1);LCD_WR_DATA(Xpos&0XFF);			 
;;;234    		LCD_WR_REG(lcddev.setycmd);LCD_WR_DATA(Ypos>>8);  		
;;;235    		LCD_WR_REG(lcddev.setycmd+1);LCD_WR_DATA(Ypos&0XFF);			
;;;236    	}else
;;;237    	{
;;;238    		if(lcddev.dir==1)Xpos=lcddev.width-1-Xpos;//横屏其实就是调转x,y坐标
00005a  f1b90f01          CMP      r9,#1
00005e  d063              BEQ      |L20.296|
000060  e064              B        |L20.300|
                  |L20.98|
000062  f8ab2000          STRH     r2,[r11,#0]
000066  4652              MOV      r2,r10
000068  f8aac000          STRH     r12,[r10,#0]
00006c  b2c0              UXTB     r0,r0                 ;202
00006e  f8aa0000          STRH     r0,[r10,#0]           ;202
000072  f8ab1000          STRH     r1,[r11,#0]           ;202
000076  e00f              B        |L20.152|
                  |L20.120|
000078  f1b90f01          CMP      r9,#1                 ;207
00007c  d101              BNE      |L20.130|
00007e  fa1ff088          UXTH     r0,r8                 ;207
                  |L20.130|
000082  f8ab2000          STRH     r2,[r11,#0]           ;207
000086  0a05              LSRS     r5,r0,#8              ;209
000088  4652              MOV      r2,r10                ;209
00008a  f8aa5000          STRH     r5,[r10,#0]           ;209
00008e  b2c0              UXTB     r0,r0                 ;209
000090  f8aa0000          STRH     r0,[r10,#0]           ;209
000094  f8ab1000          STRH     r1,[r11,#0]           ;209
                  |L20.152|
000098  8014              STRH     r4,[r2,#0]            ;209
00009a  b2d8              UXTB     r0,r3                 ;204
00009c  8010              STRH     r0,[r2,#0]            ;204
                  |L20.158|
;;;239    		LCD_WriteReg(lcddev.setxcmd, Xpos);
;;;240    		LCD_WriteReg(lcddev.setycmd, Ypos);
;;;241    	}	 
;;;242    } 		 
00009e  e8bd8ff0          POP      {r4-r11,pc}
                  |L20.162|
0000a2  f1b90f00          CMP      r9,#0                 ;214
0000a6  d01b              BEQ      |L20.224|
0000a8  f8ab2000          STRH     r2,[r11,#0]           ;214
0000ac  4652              MOV      r2,r10                ;214
0000ae  f8aac000          STRH     r12,[r10,#0]          ;214
0000b2  b2c0              UXTB     r0,r0                 ;223
0000b4  f8aa0000          STRH     r0,[r10,#0]           ;223
0000b8  1e76              SUBS     r6,r6,#1              ;223
0000ba  0a30              LSRS     r0,r6,#8              ;224
0000bc  f8aa0000          STRH     r0,[r10,#0]           ;224
0000c0  b2f0              UXTB     r0,r6                 ;224
                  |L20.194|
0000c2  8010              STRH     r0,[r2,#0]            ;224
0000c4  f8ab1000          STRH     r1,[r11,#0]           ;224
0000c8  4611              MOV      r1,r2                 ;224
0000ca  8014              STRH     r4,[r2,#0]            ;224
0000cc  b2d8              UXTB     r0,r3                 ;227
0000ce  8010              STRH     r0,[r2,#0]            ;227
0000d0  f8be0002          LDRH     r0,[lr,#2]            ;228  ; lcddev
0000d4  1e40              SUBS     r0,r0,#1              ;228
0000d6  0a02              LSRS     r2,r0,#8              ;228
0000d8  800a              STRH     r2,[r1,#0]            ;228
0000da  b2c0              UXTB     r0,r0                 ;228
0000dc  8008              STRH     r0,[r1,#0]            ;228
0000de  e7de              B        |L20.158|
                  |L20.224|
0000e0  fa1ff088          UXTH     r0,r8                 ;216
0000e4  f8ab2000          STRH     r2,[r11,#0]           ;216
0000e8  2600              MOVS     r6,#0                 ;218
0000ea  4652              MOV      r2,r10                ;218
0000ec  f8aa6000          STRH     r6,[r10,#0]           ;218
0000f0  f8aa6000          STRH     r6,[r10,#0]           ;218
0000f4  0a06              LSRS     r6,r0,#8              ;219
0000f6  f8aa6000          STRH     r6,[r10,#0]           ;219
0000fa  b2c0              UXTB     r0,r0                 ;219
0000fc  e7e1              B        |L20.194|
                  |L20.254|
0000fe  f8ab2000          STRH     r2,[r11,#0]           ;219
000102  f8aac000          STRH     r12,[r10,#0]          ;219
000106  1c52              ADDS     r2,r2,#1              ;219
000108  f8ab2000          STRH     r2,[r11,#0]           ;219
00010c  b2c0              UXTB     r0,r0                 ;233
00010e  f8aa0000          STRH     r0,[r10,#0]           ;233
000112  f8ab1000          STRH     r1,[r11,#0]           ;233
000116  f8aa4000          STRH     r4,[r10,#0]           ;233
00011a  1c49              ADDS     r1,r1,#1              ;233
00011c  f8ab1000          STRH     r1,[r11,#0]           ;233
000120  b2d8              UXTB     r0,r3                 ;235
000122  f8aa0000          STRH     r0,[r10,#0]           ;235
000126  e7ba              B        |L20.158|
                  |L20.296|
000128  fa1ff088          UXTH     r0,r8                 ;238
                  |L20.300|
00012c  4601              MOV      r1,r0                 ;239
00012e  4610              MOV      r0,r2                 ;239
000130  f7fffffe          BL       LCD_WriteReg
000134  89b0              LDRH     r0,[r6,#0xc]          ;240  ; lcddev
000136  e8bd4ff0          POP      {r4-r11,lr}           ;240
00013a  4619              MOV      r1,r3                 ;240
00013c  f7ffbffe          B.W      LCD_WriteReg
;;;243    //设置LCD的自动扫描方向
                          ENDP

                  |L20.320|
                          DCD      ||.bss||
                  |L20.324|
                          DCD      0x6c0007fe

                          AREA ||i.LCD_Set_Window||, CODE, READONLY, ALIGN=2

                  LCD_Set_Window PROC
;;;523    //窗体大小:width*height. 
;;;524    void LCD_Set_Window(u16 sx,u16 sy,u16 width,u16 height)
000000  e92d4ffc          PUSH     {r2-r11,lr}
;;;525    {    
000004  4604              MOV      r4,r0
000006  4691              MOV      r9,r2
;;;526    	u8 hsareg,heareg,vsareg,veareg;
;;;527    	u16 hsaval,heaval,vsaval,veaval; 
;;;528    	u16 twidth,theight;
;;;529    	twidth=sx+width-1;
000008  4448              ADD      r0,r0,r9
00000a  1e40              SUBS     r0,r0,#1
00000c  b286              UXTH     r6,r0
;;;530    	theight=sy+height-1;
00000e  18c8              ADDS     r0,r1,r3
000010  1e40              SUBS     r0,r0,#1
000012  b283              UXTH     r3,r0
;;;531    	if(lcddev.id==0X9341||lcddev.id==0X5310||lcddev.id==0X6804||(lcddev.dir==1&&lcddev.id==0X1963))
000014  9000              STR      r0,[sp,#0]
000016  eb040009          ADD      r0,r4,r9              ;529
00001a  1e40              SUBS     r0,r0,#1              ;529
;;;532    	{
;;;533    		LCD_WR_REG(lcddev.setxcmd); 
;;;534    		LCD_WR_DATA(sx>>8); 
;;;535    		LCD_WR_DATA(sx&0XFF);	 
;;;536    		LCD_WR_DATA(twidth>>8); 
00001c  f3c02e07          UBFX     lr,r0,#8,#8
000020  f8dfc150          LDR      r12,|L21.372|
;;;537    		LCD_WR_DATA(twidth&0XFF);  
;;;538    		LCD_WR_REG(lcddev.setycmd); 
;;;539    		LCD_WR_DATA(sy>>8); 
;;;540    		LCD_WR_DATA(sy&0XFF); 
;;;541    		LCD_WR_DATA(theight>>8); 
000024  9800              LDR      r0,[sp,#0]
000026  460d              MOV      r5,r1                 ;525
000028  f3c02b07          UBFX     r11,r0,#8,#8
00002c  4660              MOV      r0,r12                ;531
00002e  f8bc2004          LDRH     r2,[r12,#4]           ;531  ; lcddev
000032  ea4f2811          LSR      r8,r1,#8              ;539
000036  8981              LDRH     r1,[r0,#0xc]          ;538
000038  8940              LDRH     r0,[r0,#0xa]          ;533
00003a  f5a24713          SUB      r7,r2,#0x9300         ;531
00003e  ea4f2a14          LSR      r10,r4,#8             ;534
000042  3f41              SUBS     r7,r7,#0x41           ;531
000044  d010              BEQ      |L21.104|
000046  f5a247a6          SUB      r7,r2,#0x5300         ;531
00004a  3f10              SUBS     r7,r7,#0x10           ;531
00004c  d00c              BEQ      |L21.104|
00004e  f5a247d0          SUB      r7,r2,#0x6800         ;531
000052  3f04              SUBS     r7,#4                 ;531
000054  d008              BEQ      |L21.104|
000056  f89c7006          LDRB     r7,[r12,#6]           ;531  ; lcddev
00005a  f6411c63          MOV      r12,#0x1963           ;531
00005e  9701              STR      r7,[sp,#4]            ;531
000060  2f01              CMP      r7,#1                 ;531
000062  d113              BNE      |L21.140|
000064  4562              CMP      r2,r12                ;531
000066  d111              BNE      |L21.140|
                  |L21.104|
000068  4f43              LDR      r7,|L21.376|
00006a  8038              STRH     r0,[r7,#0]            ;531
00006c  1cb8              ADDS     r0,r7,#2              ;531
00006e  f8a0a000          STRH     r10,[r0,#0]           ;531
000072  b2e2              UXTB     r2,r4                 ;535
000074  8002              STRH     r2,[r0,#0]            ;535
000076  f8a0e000          STRH     lr,[r0,#0]            ;535
00007a  b2f2              UXTB     r2,r6                 ;537
00007c  8002              STRH     r2,[r0,#0]            ;537
00007e  8039              STRH     r1,[r7,#0]            ;537
000080  f8a08000          STRH     r8,[r0,#0]            ;537
000084  b2e9              UXTB     r1,r5                 ;540
000086  8001              STRH     r1,[r0,#0]            ;540
000088  4659              MOV      r1,r11                ;540
;;;542    		LCD_WR_DATA(theight&0XFF); 
00008a  e01c              B        |L21.198|
                  |L21.140|
00008c  4f39              LDR      r7,|L21.372|
;;;543    	}else if(lcddev.id==0X1963)//1963竖屏特殊处理
00008e  4562              CMP      r2,r12
;;;544    	{
;;;545    		sx=lcddev.width-width-sx; 
000090  883f              LDRH     r7,[r7,#0]
000092  d11d              BNE      |L21.208|
000094  eba70209          SUB      r2,r7,r9
000098  1b12              SUBS     r2,r2,r4
00009a  4c37              LDR      r4,|L21.376|
;;;546    		height=sy+height-1; 
00009c  9b00              LDR      r3,[sp,#0]
00009e  b292              UXTH     r2,r2                 ;545
0000a0  b29b              UXTH     r3,r3
0000a2  8020              STRH     r0,[r4,#0]
;;;547    		LCD_WR_REG(lcddev.setxcmd); 
;;;548    		LCD_WR_DATA(sx>>8); 
0000a4  0a16              LSRS     r6,r2,#8
0000a6  1ca0              ADDS     r0,r4,#2
0000a8  8006              STRH     r6,[r0,#0]
;;;549    		LCD_WR_DATA(sx&0XFF);	 
0000aa  b2d6              UXTB     r6,r2
0000ac  8006              STRH     r6,[r0,#0]
;;;550    		LCD_WR_DATA((sx+width-1)>>8); 
0000ae  444a              ADD      r2,r2,r9
0000b0  1e52              SUBS     r2,r2,#1
0000b2  0a16              LSRS     r6,r2,#8
0000b4  8006              STRH     r6,[r0,#0]
;;;551    		LCD_WR_DATA((sx+width-1)&0XFF);  
0000b6  b2d2              UXTB     r2,r2
0000b8  8002              STRH     r2,[r0,#0]
0000ba  8021              STRH     r1,[r4,#0]
0000bc  f8a08000          STRH     r8,[r0,#0]
;;;552    		LCD_WR_REG(lcddev.setycmd); 
;;;553    		LCD_WR_DATA(sy>>8); 
;;;554    		LCD_WR_DATA(sy&0XFF); 
0000c0  b2e9              UXTB     r1,r5
0000c2  8001              STRH     r1,[r0,#0]
;;;555    		LCD_WR_DATA(height>>8); 
0000c4  0a19              LSRS     r1,r3,#8
                  |L21.198|
0000c6  8001              STRH     r1,[r0,#0]
0000c8  b2d9              UXTB     r1,r3                 ;542
0000ca  8001              STRH     r1,[r0,#0]            ;542
                  |L21.204|
;;;556    		LCD_WR_DATA(height&0XFF); 		
;;;557    	}else if(lcddev.id==0X5510)
;;;558    	{
;;;559    		LCD_WR_REG(lcddev.setxcmd);LCD_WR_DATA(sx>>8);  
;;;560    		LCD_WR_REG(lcddev.setxcmd+1);LCD_WR_DATA(sx&0XFF);	  
;;;561    		LCD_WR_REG(lcddev.setxcmd+2);LCD_WR_DATA(twidth>>8);   
;;;562    		LCD_WR_REG(lcddev.setxcmd+3);LCD_WR_DATA(twidth&0XFF);   
;;;563    		LCD_WR_REG(lcddev.setycmd);LCD_WR_DATA(sy>>8);   
;;;564    		LCD_WR_REG(lcddev.setycmd+1);LCD_WR_DATA(sy&0XFF);  
;;;565    		LCD_WR_REG(lcddev.setycmd+2);LCD_WR_DATA(theight>>8);   
;;;566    		LCD_WR_REG(lcddev.setycmd+3);LCD_WR_DATA(theight&0XFF);  
;;;567    	}else	//其他驱动IC
;;;568    	{
;;;569    		if(lcddev.dir==1)//横屏
;;;570    		{
;;;571    			//窗口值
;;;572    			hsaval=sy;				
;;;573    			heaval=theight;
;;;574    			vsaval=lcddev.width-twidth-1;
;;;575    			veaval=lcddev.width-sx-1;				
;;;576    		}else
;;;577    		{ 
;;;578    			hsaval=sx;				
;;;579    			heaval=twidth;
;;;580    			vsaval=sy;
;;;581    			veaval=theight;
;;;582    		} 
;;;583    		hsareg=0X50;heareg=0X51;//水平方向窗口寄存器
;;;584    		vsareg=0X52;veareg=0X53;//垂直方向窗口寄存器	   							  
;;;585    		//设置寄存器值
;;;586    		LCD_WriteReg(hsareg,hsaval);
;;;587    		LCD_WriteReg(heareg,heaval);
;;;588    		LCD_WriteReg(vsareg,vsaval);
;;;589    		LCD_WriteReg(veareg,veaval);		
;;;590    		LCD_SetCursor(sx,sy);	//设置光标位置
;;;591    	}
;;;592    }
0000cc  e8bd8ffc          POP      {r2-r11,pc}
                  |L21.208|
0000d0  f5a24ca0          SUB      r12,r2,#0x5000        ;557
0000d4  f5bc6ca2          SUBS     r12,r12,#0x510        ;557
0000d8  d01f              BEQ      |L21.282|
0000da  9801              LDR      r0,[sp,#4]            ;569
0000dc  2801              CMP      r0,#1                 ;569
0000de  d03f              BEQ      |L21.352|
0000e0  46b0              MOV      r8,r6                 ;579
0000e2  4621              MOV      r1,r4                 ;578
0000e4  462e              MOV      r6,r5                 ;580
                  |L21.230|
0000e6  2050              MOVS     r0,#0x50              ;583
0000e8  f04f0a51          MOV      r10,#0x51             ;583
0000ec  f04f0952          MOV      r9,#0x52              ;584
0000f0  2753              MOVS     r7,#0x53              ;584
0000f2  f7fffffe          BL       LCD_WriteReg
0000f6  4641              MOV      r1,r8                 ;587
0000f8  4650              MOV      r0,r10                ;587
0000fa  f7fffffe          BL       LCD_WriteReg
0000fe  4631              MOV      r1,r6                 ;588
000100  4648              MOV      r0,r9                 ;588
000102  f7fffffe          BL       LCD_WriteReg
000106  4619              MOV      r1,r3                 ;589
000108  4638              MOV      r0,r7                 ;589
00010a  f7fffffe          BL       LCD_WriteReg
00010e  4629              MOV      r1,r5                 ;590
000110  4620              MOV      r0,r4                 ;590
000112  e8bd4ffc          POP      {r2-r11,lr}           ;590
000116  f7ffbffe          B.W      LCD_SetCursor
                  |L21.282|
00011a  4a17              LDR      r2,|L21.376|
00011c  8010              STRH     r0,[r2,#0]            ;590
00011e  1c97              ADDS     r7,r2,#2              ;590
000120  f8a7a000          STRH     r10,[r7,#0]           ;590
000124  f1000c01          ADD      r12,r0,#1             ;560
000128  f8a2c000          STRH     r12,[r2,#0]           ;560
00012c  b2e4              UXTB     r4,r4                 ;560
00012e  803c              STRH     r4,[r7,#0]            ;560
000130  1c84              ADDS     r4,r0,#2              ;561
000132  8014              STRH     r4,[r2,#0]            ;561
000134  f8a7e000          STRH     lr,[r7,#0]            ;561
000138  1cc0              ADDS     r0,r0,#3              ;561
00013a  8010              STRH     r0,[r2,#0]            ;561
00013c  b2f0              UXTB     r0,r6                 ;562
00013e  8038              STRH     r0,[r7,#0]            ;562
000140  8011              STRH     r1,[r2,#0]            ;562
000142  f8a78000          STRH     r8,[r7,#0]            ;562
000146  1c48              ADDS     r0,r1,#1              ;564
000148  8010              STRH     r0,[r2,#0]            ;564
00014a  b2e8              UXTB     r0,r5                 ;564
00014c  8038              STRH     r0,[r7,#0]            ;564
00014e  1c88              ADDS     r0,r1,#2              ;565
000150  8010              STRH     r0,[r2,#0]            ;565
000152  f8a7b000          STRH     r11,[r7,#0]           ;565
000156  1cc9              ADDS     r1,r1,#3              ;565
000158  8011              STRH     r1,[r2,#0]            ;565
00015a  b2d8              UXTB     r0,r3                 ;566
00015c  8038              STRH     r0,[r7,#0]            ;566
00015e  e7b5              B        |L21.204|
                  |L21.352|
000160  1bb8              SUBS     r0,r7,r6              ;574
000162  1e40              SUBS     r0,r0,#1              ;574
000164  b286              UXTH     r6,r0                 ;574
000166  1b38              SUBS     r0,r7,r4              ;575
000168  4698              MOV      r8,r3                 ;573
00016a  1e40              SUBS     r0,r0,#1              ;575
00016c  4629              MOV      r1,r5                 ;572
00016e  b283              UXTH     r3,r0                 ;575
000170  e7b9              B        |L21.230|
;;;593    //初始化lcd
                          ENDP

000172  0000              DCW      0x0000
                  |L21.372|
                          DCD      ||.bss||
                  |L21.376|
                          DCD      0x6c0007fe

                          AREA ||i.LCD_ShowChar||, CODE, READONLY, ALIGN=2

                  LCD_ShowChar PROC
;;;2789   //mode:叠加方式(1)还是非叠加方式(0)
;;;2790   void LCD_ShowChar(u16 x,u16 y,u8 num,u8 size,u8 mode)
000000  e92d4ff8          PUSH     {r3-r11,lr}
;;;2791   {  							  
000004  4682              MOV      r10,r0
000006  461f              MOV      r7,r3
000008  460c              MOV      r4,r1
;;;2792       u8 temp,t1,t;
;;;2793   	u16 y0=y;
00000a  468b              MOV      r11,r1
;;;2794   	u8 csize=(size/8+((size%8)?1:0))*(size/2);		//得到字体一个字符对应点阵集所占的字节数	
00000c  0758              LSLS     r0,r3,#29
00000e  d000              BEQ      |L22.18|
000010  2001              MOVS     r0,#1
                  |L22.18|
000012  eb0000d7          ADD      r0,r0,r7,LSR #3
000016  0879              LSRS     r1,r7,#1
000018  4348              MULS     r0,r1,r0
00001a  3a20              SUBS     r2,r2,#0x20
00001c  b2c0              UXTB     r0,r0
;;;2795    	num=num-' ';//得到偏移后的值（ASCII字库是从空格开始取模，所以-' '就是对应字符的字库）
00001e  f00209ff          AND      r9,r2,#0xff
;;;2796   	for(t=0;t<csize;t++)
000022  2600              MOVS     r6,#0
000024  9000              STR      r0,[sp,#0]
000026  e041              B        |L22.172|
                  |L22.40|
;;;2797   	{   
;;;2798   		if(size==12)temp=asc2_1206[num][t]; 	 	//调用1206字体
000028  2f0c              CMP      r7,#0xc
00002a  d010              BEQ      |L22.78|
;;;2799   		else if(size==16)temp=asc2_1608[num][t];	//调用1608字体
00002c  2f10              CMP      r7,#0x10
00002e  d012              BEQ      |L22.86|
;;;2800   		else if(size==24)temp=asc2_2412[num][t];	//调用2412字体
000030  2f18              CMP      r7,#0x18
000032  d13e              BNE      |L22.178|
000034  4920              LDR      r1,|L22.184|
000036  eb0900c9          ADD      r0,r9,r9,LSL #3
                  |L22.58|
00003a  eb010080          ADD      r0,r1,r0,LSL #2       ;2798
                  |L22.62|
;;;2801   		else return;								//没有的字库
;;;2802   		for(t1=0;t1<8;t1++)
00003e  f04f0800          MOV      r8,#0
000042  5d85              LDRB     r5,[r0,r6]            ;2800
                  |L22.68|
;;;2803   		{			    
;;;2804   			if(temp&0x80)LCD_Fast_DrawPoint(x,y,POINT_COLOR);
000044  0628              LSLS     r0,r5,#24
000046  d50a              BPL      |L22.94|
000048  481c              LDR      r0,|L22.188|
00004a  8802              LDRH     r2,[r0,#0]  ; POINT_COLOR
00004c  e00b              B        |L22.102|
                  |L22.78|
00004e  eb090049          ADD      r0,r9,r9,LSL #1       ;2798
000052  491b              LDR      r1,|L22.192|
000054  e7f1              B        |L22.58|
                  |L22.86|
000056  491b              LDR      r1,|L22.196|
000058  eb011009          ADD      r0,r1,r9,LSL #4       ;2799
00005c  e7ef              B        |L22.62|
                  |L22.94|
;;;2805   			else if(mode==0)LCD_Fast_DrawPoint(x,y,BACK_COLOR);
00005e  980a              LDR      r0,[sp,#0x28]
000060  b928              CBNZ     r0,|L22.110|
000062  4816              LDR      r0,|L22.188|
000064  8842              LDRH     r2,[r0,#2]  ; BACK_COLOR
                  |L22.102|
000066  4621              MOV      r1,r4
000068  4650              MOV      r0,r10
00006a  f7fffffe          BL       LCD_Fast_DrawPoint
                  |L22.110|
;;;2806   			temp<<=1;
00006e  0668              LSLS     r0,r5,#25
000070  0e05              LSRS     r5,r0,#24
;;;2807   			y++;
;;;2808   			if(y>=lcddev.height)return;		//超区域了
000072  4815              LDR      r0,|L22.200|
000074  1c64              ADDS     r4,r4,#1              ;2806
000076  b2a4              UXTH     r4,r4                 ;2807
000078  8840              LDRH     r0,[r0,#2]  ; lcddev
00007a  42a0              CMP      r0,r4
00007c  d919              BLS      |L22.178|
;;;2809   			if((y-y0)==size)
00007e  eba4000b          SUB      r0,r4,r11
000082  42b8              CMP      r0,r7
000084  d109              BNE      |L22.154|
;;;2810   			{
;;;2811   				y=y0;
;;;2812   				x++;
000086  f10a0001          ADD      r0,r10,#1
00008a  fa1ffa80          UXTH     r10,r0
;;;2813   				if(x>=lcddev.width)return;	//超区域了
00008e  480e              LDR      r0,|L22.200|
000090  465c              MOV      r4,r11                ;2811
000092  8801              LDRH     r1,[r0,#0]  ; lcddev
000094  4551              CMP      r1,r10
000096  d90c              BLS      |L22.178|
000098  e006              B        |L22.168|
                  |L22.154|
00009a  f1080001          ADD      r0,r8,#1              ;2802
00009e  f00008ff          AND      r8,r0,#0xff           ;2802
0000a2  f1b80f08          CMP      r8,#8                 ;2802
0000a6  d3cd              BCC      |L22.68|
                  |L22.168|
0000a8  1c76              ADDS     r6,r6,#1              ;2802
0000aa  b2f6              UXTB     r6,r6                 ;2796
                  |L22.172|
0000ac  9800              LDR      r0,[sp,#0]            ;2796
0000ae  4286              CMP      r6,r0                 ;2796
0000b0  d3ba              BCC      |L22.40|
                  |L22.178|
;;;2814   				break;
;;;2815   			}
;;;2816   		}  	 
;;;2817   	}  	    	   	 	  
;;;2818   }   
0000b2  e8bd8ff8          POP      {r3-r11,pc}
;;;2819   //m^n函数
                          ENDP

0000b6  0000              DCW      0x0000
                  |L22.184|
                          DCD      ||.constdata||+0xa64
                  |L22.188|
                          DCD      ||.data||
                  |L22.192|
                          DCD      ||.constdata||
                  |L22.196|
                          DCD      ||.constdata||+0x474
                  |L22.200|
                          DCD      ||.bss||

                          AREA ||i.LCD_ShowNum||, CODE, READONLY, ALIGN=1

                  LCD_ShowNum PROC
;;;2832   //num:数值(0~4294967295);	 
;;;2833   void LCD_ShowNum(u16 x,u16 y,u32 num,u8 len,u8 size)
000000  e92d4fff          PUSH     {r0-r11,lr}
;;;2834   {         	
000004  b081              SUB      sp,sp,#4
;;;2835   	u8 t,temp;
;;;2836   	u8 enshow=0;						   
000006  2700              MOVS     r7,#0
;;;2837   	for(t=0;t<len;t++)
;;;2838   	{
;;;2839   		temp=(num/LCD_Pow(10,len-t-1))%10;
;;;2840   		if(enshow==0&&t<(len-1))
;;;2841   		{
;;;2842   			if(temp==0)
;;;2843   			{
;;;2844   				LCD_ShowChar(x+(size/2)*t,y,' ',size,0);
000008  f8ddb038          LDR      r11,[sp,#0x38]
00000c  461d              MOV      r5,r3                 ;2834
00000e  4692              MOV      r10,r2                ;2834
000010  4680              MOV      r8,r0                 ;2834
000012  463c              MOV      r4,r7                 ;2837
000014  46b9              MOV      r9,r7                 ;2837
000016  ea4f065b          LSR      r6,r11,#1
00001a  e027              B        |L23.108|
                  |L23.28|
00001c  1b28              SUBS     r0,r5,r4              ;2839
00001e  1e40              SUBS     r0,r0,#1              ;2839
000020  b2c1              UXTB     r1,r0                 ;2839
000022  200a              MOVS     r0,#0xa               ;2839
000024  f7fffffe          BL       LCD_Pow
000028  fbbaf0f0          UDIV     r0,r10,r0             ;2839
00002c  210a              MOVS     r1,#0xa               ;2839
00002e  fbb0f2f1          UDIV     r2,r0,r1              ;2839
000032  fb010012          MLS      r0,r1,r2,r0           ;2839
000036  b927              CBNZ     r7,|L23.66|
000038  1e69              SUBS     r1,r5,#1              ;2840
00003a  428c              CMP      r4,r1                 ;2840
00003c  da01              BGE      |L23.66|
00003e  b148              CBZ      r0,|L23.84|
;;;2845   				continue;
;;;2846   			}else enshow=1; 
000040  2701              MOVS     r7,#1
                  |L23.66|
;;;2847   		 	 
;;;2848   		}
;;;2849   	 	LCD_ShowChar(x+(size/2)*t,y,temp+'0',size,0); 
000042  3030              ADDS     r0,r0,#0x30
000044  b2c2              UXTB     r2,r0
000046  fb068004          MLA      r0,r6,r4,r8
00004a  b280              UXTH     r0,r0
00004c  465b              MOV      r3,r11
00004e  f8cd9000          STR      r9,[sp,#0]            ;2845
000052  e006              B        |L23.98|
                  |L23.84|
000054  fb068004          MLA      r0,r6,r4,r8           ;2844
000058  b280              UXTH     r0,r0                 ;2844
00005a  465b              MOV      r3,r11                ;2844
00005c  2220              MOVS     r2,#0x20              ;2844
00005e  f8cd9000          STR      r9,[sp,#0]            ;2844
                  |L23.98|
000062  9902              LDR      r1,[sp,#8]
000064  f7fffffe          BL       LCD_ShowChar
000068  1c64              ADDS     r4,r4,#1
00006a  b2e4              UXTB     r4,r4                 ;2837
                  |L23.108|
00006c  42ac              CMP      r4,r5                 ;2837
00006e  d3d5              BCC      |L23.28|
;;;2850   	}
;;;2851   } 
000070  b005              ADD      sp,sp,#0x14
000072  e8bd8ff0          POP      {r4-r11,pc}
;;;2852   //显示数字,高位为0,还是显示
                          ENDP


                          AREA ||i.LCD_ShowString||, CODE, READONLY, ALIGN=1

                  LCD_ShowString PROC
;;;2885   //*p:字符串起始地址		  
;;;2886   void LCD_ShowString(u16 x,u16 y,u16 width,u16 height,u8 size,u8 *p)
000000  e92d4ff8          PUSH     {r3-r11,lr}
;;;2887   {         
000004  4604              MOV      r4,r0
;;;2888   	u8 x0=x;
000006  f00008ff          AND      r8,r0,#0xff
;;;2889   	width+=x;
00000a  1910              ADDS     r0,r2,r4
00000c  460d              MOV      r5,r1                 ;2887
00000e  e9dd760a          LDRD     r7,r6,[sp,#0x28]      ;2887
000012  fa1ffa80          UXTH     r10,r0
;;;2890   	height+=y;
000016  1958              ADDS     r0,r3,r5
000018  fa1ff980          UXTH     r9,r0
00001c  f04f0b00          MOV      r11,#0
000020  e011              B        |L24.70|
                  |L24.34|
;;;2891       while((*p<='~')&&(*p>=' '))//判断是不是非法字符!
;;;2892       {       
;;;2893           if(x>=width){x=x0;y+=size;}
000022  4554              CMP      r4,r10
000024  d302              BCC      |L24.44|
000026  19e8              ADDS     r0,r5,r7
000028  4644              MOV      r4,r8
00002a  b285              UXTH     r5,r0
                  |L24.44|
;;;2894           if(y>=height)break;//退出
00002c  454d              CMP      r5,r9
00002e  d20f              BCS      |L24.80|
;;;2895           LCD_ShowChar(x,y,*p,size,0);
000030  463b              MOV      r3,r7
000032  4629              MOV      r1,r5
000034  4620              MOV      r0,r4
000036  f8cdb000          STR      r11,[sp,#0]
00003a  f7fffffe          BL       LCD_ShowChar
;;;2896           x+=size/2;
00003e  eb040057          ADD      r0,r4,r7,LSR #1
000042  b284              UXTH     r4,r0
000044  1c76              ADDS     r6,r6,#1
                  |L24.70|
000046  7832              LDRB     r2,[r6,#0]            ;2891
000048  f1a20020          SUB      r0,r2,#0x20           ;2891
00004c  285e              CMP      r0,#0x5e              ;2891
00004e  d9e8              BLS      |L24.34|
                  |L24.80|
;;;2897           p++;
;;;2898       }  
;;;2899   }
000050  e8bd8ff8          POP      {r3-r11,pc}
;;;2900   
                          ENDP


                          AREA ||i.LCD_ShowxNum||, CODE, READONLY, ALIGN=1

                  LCD_ShowxNum PROC
;;;2860   //[0]:0,非叠加显示;1,叠加显示.
;;;2861   void LCD_ShowxNum(u16 x,u16 y,u32 num,u8 len,u8 size,u8 mode)
000000  e92d4fff          PUSH     {r0-r11,lr}
;;;2862   {  
000004  b081              SUB      sp,sp,#4
000006  4680              MOV      r8,r0
;;;2863   	u8 t,temp;
;;;2864   	u8 enshow=0;						   
;;;2865   	for(t=0;t<len;t++)
;;;2866   	{
;;;2867   		temp=(num/LCD_Pow(10,len-t-1))%10;
;;;2868   		if(enshow==0&&t<(len-1))
;;;2869   		{
;;;2870   			if(temp==0)
;;;2871   			{
;;;2872   				if(mode&0X80)LCD_ShowChar(x+(size/2)*t,y,'0',size,mode&0X01);  
000008  f8dda03c          LDR      r10,[sp,#0x3c]
00000c  980e              LDR      r0,[sp,#0x38]
00000e  f04f0900          MOV      r9,#0                 ;2864
000012  461f              MOV      r7,r3                 ;2862
000014  4693              MOV      r11,r2                ;2862
000016  464c              MOV      r4,r9                 ;2865
000018  f00a0501          AND      r5,r10,#1
00001c  0846              LSRS     r6,r0,#1
00001e  e02b              B        |L25.120|
                  |L25.32|
000020  1b38              SUBS     r0,r7,r4              ;2867
000022  1e40              SUBS     r0,r0,#1              ;2867
000024  b2c1              UXTB     r1,r0                 ;2867
000026  200a              MOVS     r0,#0xa               ;2867
000028  f7fffffe          BL       LCD_Pow
00002c  fbbbf0f0          UDIV     r0,r11,r0             ;2867
000030  210a              MOVS     r1,#0xa               ;2867
000032  fbb0f2f1          UDIV     r2,r0,r1              ;2867
000036  fb010012          MLS      r0,r1,r2,r0           ;2867
00003a  f1b90f00          CMP      r9,#0                 ;2868
00003e  d105              BNE      |L25.76|
000040  1e79              SUBS     r1,r7,#1              ;2868
000042  428c              CMP      r4,r1                 ;2868
000044  da02              BGE      |L25.76|
000046  b148              CBZ      r0,|L25.92|
;;;2873   				else LCD_ShowChar(x+(size/2)*t,y,' ',size,mode&0X01);  
;;;2874    				continue;
;;;2875   			}else enshow=1; 
000048  f04f0901          MOV      r9,#1
                  |L25.76|
;;;2876   		 	 
;;;2877   		}
;;;2878   	 	LCD_ShowChar(x+(size/2)*t,y,temp+'0',size,mode&0X01); 
00004c  3030              ADDS     r0,r0,#0x30
00004e  b2c2              UXTB     r2,r0
000050  fb068004          MLA      r0,r6,r4,r8
000054  b280              UXTH     r0,r0
000056  9500              STR      r5,[sp,#0]
000058  9b0e              LDR      r3,[sp,#0x38]         ;2874
00005a  e008              B        |L25.110|
                  |L25.92|
00005c  ea5f600a          LSLS     r0,r10,#24            ;2872
000060  fb068004          MLA      r0,r6,r4,r8           ;2873
000064  9b0e              LDR      r3,[sp,#0x38]         ;2872
000066  b280              UXTH     r0,r0                 ;2873
000068  9500              STR      r5,[sp,#0]            ;2873
00006a  d50a              BPL      |L25.130|
00006c  2230              MOVS     r2,#0x30              ;2872
                  |L25.110|
00006e  9902              LDR      r1,[sp,#8]
000070  f7fffffe          BL       LCD_ShowChar
000074  1c64              ADDS     r4,r4,#1
000076  b2e4              UXTB     r4,r4                 ;2865
                  |L25.120|
000078  42bc              CMP      r4,r7                 ;2865
00007a  d3d1              BCC      |L25.32|
;;;2879   	}
;;;2880   } 
00007c  b005              ADD      sp,sp,#0x14
00007e  e8bd8ff0          POP      {r4-r11,pc}
                  |L25.130|
000082  2220              MOVS     r2,#0x20              ;2873
000084  e7f3              B        |L25.110|
;;;2881   //显示字符串
                          ENDP


                          AREA ||i.LCD_WR_DATA||, CODE, READONLY, ALIGN=2

                  LCD_WR_DATA PROC
;;;93     //data:要写入的值
;;;94     void LCD_WR_DATA(u16 data)
000000  4901              LDR      r1,|L26.8|
;;;95     {	 
;;;96     	LCD->LCD_RAM=data;		 
000002  8008              STRH     r0,[r1,#0]
;;;97     }
000004  4770              BX       lr
;;;98     //读LCD数据
                          ENDP

000006  0000              DCW      0x0000
                  |L26.8|
                          DCD      0x6c000800

                          AREA ||i.LCD_WR_REG||, CODE, READONLY, ALIGN=2

                  LCD_WR_REG PROC
;;;87     //regval:寄存器值
;;;88     void LCD_WR_REG(u16 regval)
000000  4901              LDR      r1,|L27.8|
;;;89     {   
;;;90     	LCD->LCD_REG=regval;//写入要写的寄存器序号	 
000002  8008              STRH     r0,[r1,#0]
;;;91     }
000004  4770              BX       lr
;;;92     //写LCD数据
                          ENDP

000006  0000              DCW      0x0000
                  |L27.8|
                          DCD      0x6c0007fe

                          AREA ||i.LCD_WriteRAM||, CODE, READONLY, ALIGN=2

                  LCD_WriteRAM PROC
;;;129    //RGB_Code:颜色值
;;;130    void LCD_WriteRAM(u16 RGB_Code)
000000  4901              LDR      r1,|L28.8|
;;;131    {							    
;;;132    	LCD->LCD_RAM = RGB_Code;//写十六位GRAM
000002  8008              STRH     r0,[r1,#0]
;;;133    }
000004  4770              BX       lr
;;;134    //从ILI93xx读出的数据为GBR格式，而我们写入的时候为RGB格式。
                          ENDP

000006  0000              DCW      0x0000
                  |L28.8|
                          DCD      0x6c000800

                          AREA ||i.LCD_WriteRAM_Prepare||, CODE, READONLY, ALIGN=2

                  LCD_WriteRAM_Prepare PROC
;;;123    //开始写GRAM
;;;124    void LCD_WriteRAM_Prepare(void)
000000  4802              LDR      r0,|L29.12|
;;;125    {
;;;126     	LCD->LCD_REG=lcddev.wramcmd;	  
000002  4903              LDR      r1,|L29.16|
000004  8900              LDRH     r0,[r0,#8]  ; lcddev
000006  8008              STRH     r0,[r1,#0]
;;;127    }	 
000008  4770              BX       lr
;;;128    //LCD写GRAM
                          ENDP

00000a  0000              DCW      0x0000
                  |L29.12|
                          DCD      ||.bss||
                  |L29.16|
                          DCD      0x6c0007fe

                          AREA ||i.LCD_WriteReg||, CODE, READONLY, ALIGN=2

                  LCD_WriteReg PROC
;;;108    //LCD_RegValue:要写入的数据
;;;109    void LCD_WriteReg(u16 LCD_Reg,u16 LCD_RegValue)
000000  4a02              LDR      r2,|L30.12|
;;;110    {	
;;;111    	LCD->LCD_REG = LCD_Reg;		//写入要写的寄存器序号	 
000002  8010              STRH     r0,[r2,#0]
;;;112    	LCD->LCD_RAM = LCD_RegValue;//写入数据	    		 
000004  1c90              ADDS     r0,r2,#2
000006  8001              STRH     r1,[r0,#0]
;;;113    }	   
000008  4770              BX       lr
;;;114    //读寄存器
                          ENDP

00000a  0000              DCW      0x0000
                  |L30.12|
                          DCD      0x6c0007fe

                          AREA ||i.opt_delay||, CODE, READONLY, ALIGN=1

                  opt_delay PROC
                  |L31.0|
;;;148    //延时i
;;;149    void opt_delay(u8 i)
000000  1e40              SUBS     r0,r0,#1
;;;150    {
;;;151    	while(i--);
000002  b2c0              UXTB     r0,r0
000004  d2fc              BCS      |L31.0|
;;;152    }
000006  4770              BX       lr
;;;153    //读取个某点的颜色值	 
                          ENDP


                          AREA ||.bss||, DATA, NOINIT, ALIGN=1

                  lcddev
                          %        14

                          AREA ||.constdata||, DATA, READONLY, ALIGN=0

                  asc2_1206
000000  00000000          DCB      0x00,0x00,0x00,0x00
000004  00000000          DCB      0x00,0x00,0x00,0x00
000008  00000000          DCB      0x00,0x00,0x00,0x00
00000c  00000000          DCB      0x00,0x00,0x00,0x00
000010  3f400000          DCB      0x3f,0x40,0x00,0x00
000014  00000000          DCB      0x00,0x00,0x00,0x00
000018  00003000          DCB      0x00,0x00,0x30,0x00
00001c  40003000          DCB      0x40,0x00,0x30,0x00
000020  40000000          DCB      0x40,0x00,0x00,0x00
000024  09000bc0          DCB      0x09,0x00,0x0b,0xc0
000028  3d000bc0          DCB      0x3d,0x00,0x0b,0xc0
00002c  3d000900          DCB      0x3d,0x00,0x09,0x00
000030  18c02440          DCB      0x18,0xc0,0x24,0x40
000034  7fe02240          DCB      0x7f,0xe0,0x22,0x40
000038  31800000          DCB      0x31,0x80,0x00,0x00
00003c  180024c0          DCB      0x18,0x00,0x24,0xc0
000040  1b000d80          DCB      0x1b,0x00,0x0d,0x80
000044  32400180          DCB      0x32,0x40,0x01,0x80
000048  03801c40          DCB      0x03,0x80,0x1c,0x40
00004c  27401c80          DCB      0x27,0x40,0x1c,0x80
000050  07400040          DCB      0x07,0x40,0x00,0x40
000054  10006000          DCB      0x10,0x00,0x60,0x00
000058  00000000          DCB      0x00,0x00,0x00,0x00
00005c  00000000          DCB      0x00,0x00,0x00,0x00
000060  00000000          DCB      0x00,0x00,0x00,0x00
000064  00001f80          DCB      0x00,0x00,0x1f,0x80
000068  20404020          DCB      0x20,0x40,0x40,0x20
00006c  00004020          DCB      0x00,0x00,0x40,0x20
000070  20401f80          DCB      0x20,0x40,0x1f,0x80
000074  00000000          DCB      0x00,0x00,0x00,0x00
000078  09000600          DCB      0x09,0x00,0x06,0x00
00007c  1f800600          DCB      0x1f,0x80,0x06,0x00
000080  09000000          DCB      0x09,0x00,0x00,0x00
000084  04000400          DCB      0x04,0x00,0x04,0x00
000088  3f800400          DCB      0x3f,0x80,0x04,0x00
00008c  04000000          DCB      0x04,0x00,0x00,0x00
000090  00100060          DCB      0x00,0x10,0x00,0x60
000094  00000000          DCB      0x00,0x00,0x00,0x00
000098  00000000          DCB      0x00,0x00,0x00,0x00
00009c  04000400          DCB      0x04,0x00,0x04,0x00
0000a0  04000400          DCB      0x04,0x00,0x04,0x00
0000a4  04000000          DCB      0x04,0x00,0x00,0x00
0000a8  00000040          DCB      0x00,0x00,0x00,0x40
0000ac  00000000          DCB      0x00,0x00,0x00,0x00
0000b0  00000000          DCB      0x00,0x00,0x00,0x00
0000b4  002001c0          DCB      0x00,0x20,0x01,0xc0
0000b8  06003800          DCB      0x06,0x00,0x38,0x00
0000bc  40000000          DCB      0x40,0x00,0x00,0x00
0000c0  1f802040          DCB      0x1f,0x80,0x20,0x40
0000c4  20402040          DCB      0x20,0x40,0x20,0x40
0000c8  1f800000          DCB      0x1f,0x80,0x00,0x00
0000cc  00001040          DCB      0x00,0x00,0x10,0x40
0000d0  3fc00040          DCB      0x3f,0xc0,0x00,0x40
0000d4  00000000          DCB      0x00,0x00,0x00,0x00
0000d8  18c02140          DCB      0x18,0xc0,0x21,0x40
0000dc  22402440          DCB      0x22,0x40,0x24,0x40
0000e0  18400000          DCB      0x18,0x40,0x00,0x00
0000e4  10802040          DCB      0x10,0x80,0x20,0x40
0000e8  24402440          DCB      0x24,0x40,0x24,0x40
0000ec  1b800000          DCB      0x1b,0x80,0x00,0x00
0000f0  02000d00          DCB      0x02,0x00,0x0d,0x00
0000f4  11003fc0          DCB      0x11,0x00,0x3f,0xc0
0000f8  01400000          DCB      0x01,0x40,0x00,0x00
0000fc  3c802440          DCB      0x3c,0x80,0x24,0x40
000100  24402440          DCB      0x24,0x40,0x24,0x40
000104  23800000          DCB      0x23,0x80,0x00,0x00
000108  1f802440          DCB      0x1f,0x80,0x24,0x40
00010c  24403440          DCB      0x24,0x40,0x34,0x40
000110  03800000          DCB      0x03,0x80,0x00,0x00
000114  30002000          DCB      0x30,0x00,0x20,0x00
000118  27c03800          DCB      0x27,0xc0,0x38,0x00
00011c  20000000          DCB      0x20,0x00,0x00,0x00
000120  1b802440          DCB      0x1b,0x80,0x24,0x40
000124  24402440          DCB      0x24,0x40,0x24,0x40
000128  1b800000          DCB      0x1b,0x80,0x00,0x00
00012c  1c0022c0          DCB      0x1c,0x00,0x22,0xc0
000130  22402240          DCB      0x22,0x40,0x22,0x40
000134  1f800000          DCB      0x1f,0x80,0x00,0x00
000138  00000000          DCB      0x00,0x00,0x00,0x00
00013c  08400000          DCB      0x08,0x40,0x00,0x00
000140  00000000          DCB      0x00,0x00,0x00,0x00
000144  00000000          DCB      0x00,0x00,0x00,0x00
000148  04600000          DCB      0x04,0x60,0x00,0x00
00014c  00000000          DCB      0x00,0x00,0x00,0x00
000150  00000400          DCB      0x00,0x00,0x04,0x00
000154  0a001100          DCB      0x0a,0x00,0x11,0x00
000158  20804040          DCB      0x20,0x80,0x40,0x40
00015c  09000900          DCB      0x09,0x00,0x09,0x00
000160  09000900          DCB      0x09,0x00,0x09,0x00
000164  09000000          DCB      0x09,0x00,0x00,0x00
000168  00004040          DCB      0x00,0x00,0x40,0x40
00016c  20801100          DCB      0x20,0x80,0x11,0x00
000170  0a000400          DCB      0x0a,0x00,0x04,0x00
000174  18002000          DCB      0x18,0x00,0x20,0x00
000178  23402400          DCB      0x23,0x40,0x24,0x00
00017c  18000000          DCB      0x18,0x00,0x00,0x00
000180  1f802040          DCB      0x1f,0x80,0x20,0x40
000184  27402940          DCB      0x27,0x40,0x29,0x40
000188  1f400000          DCB      0x1f,0x40,0x00,0x00
00018c  004007c0          DCB      0x00,0x40,0x07,0xc0
000190  39000f00          DCB      0x39,0x00,0x0f,0x00
000194  01c00040          DCB      0x01,0xc0,0x00,0x40
000198  20403fc0          DCB      0x20,0x40,0x3f,0xc0
00019c  24402440          DCB      0x24,0x40,0x24,0x40
0001a0  1b800000          DCB      0x1b,0x80,0x00,0x00
0001a4  1f802040          DCB      0x1f,0x80,0x20,0x40
0001a8  20402040          DCB      0x20,0x40,0x20,0x40
0001ac  30800000          DCB      0x30,0x80,0x00,0x00
0001b0  20403fc0          DCB      0x20,0x40,0x3f,0xc0
0001b4  20402040          DCB      0x20,0x40,0x20,0x40
0001b8  1f800000          DCB      0x1f,0x80,0x00,0x00
0001bc  20403fc0          DCB      0x20,0x40,0x3f,0xc0
0001c0  24402e40          DCB      0x24,0x40,0x2e,0x40
0001c4  30c00000          DCB      0x30,0xc0,0x00,0x00
0001c8  20403fc0          DCB      0x20,0x40,0x3f,0xc0
0001cc  24402e00          DCB      0x24,0x40,0x2e,0x00
0001d0  30000000          DCB      0x30,0x00,0x00,0x00
0001d4  0f001080          DCB      0x0f,0x00,0x10,0x80
0001d8  20402240          DCB      0x20,0x40,0x22,0x40
0001dc  33800200          DCB      0x33,0x80,0x02,0x00
0001e0  20403fc0          DCB      0x20,0x40,0x3f,0xc0
0001e4  04000400          DCB      0x04,0x00,0x04,0x00
0001e8  3fc02040          DCB      0x3f,0xc0,0x20,0x40
0001ec  20402040          DCB      0x20,0x40,0x20,0x40
0001f0  3fc02040          DCB      0x3f,0xc0,0x20,0x40
0001f4  20400000          DCB      0x20,0x40,0x00,0x00
0001f8  00602020          DCB      0x00,0x60,0x20,0x20
0001fc  20203fc0          DCB      0x20,0x20,0x3f,0xc0
000200  20002000          DCB      0x20,0x00,0x20,0x00
000204  20403fc0          DCB      0x20,0x40,0x3f,0xc0
000208  24400b00          DCB      0x24,0x40,0x0b,0x00
00020c  30c02040          DCB      0x30,0xc0,0x20,0x40
000210  20403fc0          DCB      0x20,0x40,0x3f,0xc0
000214  20400040          DCB      0x20,0x40,0x00,0x40
000218  004000c0          DCB      0x00,0x40,0x00,0xc0
00021c  3fc03c00          DCB      0x3f,0xc0,0x3c,0x00
000220  03c03c00          DCB      0x03,0xc0,0x3c,0x00
000224  3fc00000          DCB      0x3f,0xc0,0x00,0x00
000228  20403fc0          DCB      0x20,0x40,0x3f,0xc0
00022c  0c402300          DCB      0x0c,0x40,0x23,0x00
000230  3fc02000          DCB      0x3f,0xc0,0x20,0x00
000234  1f802040          DCB      0x1f,0x80,0x20,0x40
000238  20402040          DCB      0x20,0x40,0x20,0x40
00023c  1f800000          DCB      0x1f,0x80,0x00,0x00
000240  20403fc0          DCB      0x20,0x40,0x3f,0xc0
000244  24402400          DCB      0x24,0x40,0x24,0x00
000248  18000000          DCB      0x18,0x00,0x00,0x00
00024c  1f802140          DCB      0x1f,0x80,0x21,0x40
000250  214020e0          DCB      0x21,0x40,0x20,0xe0
000254  1fa00000          DCB      0x1f,0xa0,0x00,0x00
000258  20403fc0          DCB      0x20,0x40,0x3f,0xc0
00025c  24402600          DCB      0x24,0x40,0x26,0x00
000260  19c00040          DCB      0x19,0xc0,0x00,0x40
000264  18c02440          DCB      0x18,0xc0,0x24,0x40
000268  24402240          DCB      0x24,0x40,0x22,0x40
00026c  31800000          DCB      0x31,0x80,0x00,0x00
000270  30002040          DCB      0x30,0x00,0x20,0x40
000274  3fc02040          DCB      0x3f,0xc0,0x20,0x40
000278  30000000          DCB      0x30,0x00,0x00,0x00
00027c  20003f80          DCB      0x20,0x00,0x3f,0x80
000280  00400040          DCB      0x00,0x40,0x00,0x40
000284  3f802000          DCB      0x3f,0x80,0x20,0x00
000288  20003e00          DCB      0x20,0x00,0x3e,0x00
00028c  01c00700          DCB      0x01,0xc0,0x07,0x00
000290  38002000          DCB      0x38,0x00,0x20,0x00
000294  380007c0          DCB      0x38,0x00,0x07,0xc0
000298  3c0007c0          DCB      0x3c,0x00,0x07,0xc0
00029c  38000000          DCB      0x38,0x00,0x00,0x00
0002a0  204039c0          DCB      0x20,0x40,0x39,0xc0
0002a4  060039c0          DCB      0x06,0x00,0x39,0xc0
0002a8  20400000          DCB      0x20,0x40,0x00,0x00
0002ac  20003840          DCB      0x20,0x00,0x38,0x40
0002b0  07c03840          DCB      0x07,0xc0,0x38,0x40
0002b4  20000000          DCB      0x20,0x00,0x00,0x00
0002b8  304021c0          DCB      0x30,0x40,0x21,0xc0
0002bc  26403840          DCB      0x26,0x40,0x38,0x40
0002c0  20c00000          DCB      0x20,0xc0,0x00,0x00
0002c4  00000000          DCB      0x00,0x00,0x00,0x00
0002c8  7fe04020          DCB      0x7f,0xe0,0x40,0x20
0002cc  40200000          DCB      0x40,0x20,0x00,0x00
0002d0  00007000          DCB      0x00,0x00,0x70,0x00
0002d4  0c000380          DCB      0x0c,0x00,0x03,0x80
0002d8  00400000          DCB      0x00,0x40,0x00,0x00
0002dc  00004020          DCB      0x00,0x00,0x40,0x20
0002e0  40207fe0          DCB      0x40,0x20,0x7f,0xe0
0002e4  00000000          DCB      0x00,0x00,0x00,0x00
0002e8  00002000          DCB      0x00,0x00,0x20,0x00
0002ec  40002000          DCB      0x40,0x00,0x20,0x00
0002f0  00000000          DCB      0x00,0x00,0x00,0x00
0002f4  00100010          DCB      0x00,0x10,0x00,0x10
0002f8  00100010          DCB      0x00,0x10,0x00,0x10
0002fc  00100010          DCB      0x00,0x10,0x00,0x10
000300  00000000          DCB      0x00,0x00,0x00,0x00
000304  40000000          DCB      0x40,0x00,0x00,0x00
000308  00000000          DCB      0x00,0x00,0x00,0x00
00030c  00000280          DCB      0x00,0x00,0x02,0x80
000310  05400540          DCB      0x05,0x40,0x05,0x40
000314  03c00040          DCB      0x03,0xc0,0x00,0x40
000318  20003fc0          DCB      0x20,0x00,0x3f,0xc0
00031c  04400440          DCB      0x04,0x40,0x04,0x40
000320  03800000          DCB      0x03,0x80,0x00,0x00
000324  00000380          DCB      0x00,0x00,0x03,0x80
000328  04400440          DCB      0x04,0x40,0x04,0x40
00032c  06400000          DCB      0x06,0x40,0x00,0x00
000330  00000380          DCB      0x00,0x00,0x03,0x80
000334  04402440          DCB      0x04,0x40,0x24,0x40
000338  3fc00040          DCB      0x3f,0xc0,0x00,0x40
00033c  00000380          DCB      0x00,0x00,0x03,0x80
000340  05400540          DCB      0x05,0x40,0x05,0x40
000344  03400000          DCB      0x03,0x40,0x00,0x00
000348  00000440          DCB      0x00,0x00,0x04,0x40
00034c  1fc02440          DCB      0x1f,0xc0,0x24,0x40
000350  24402000          DCB      0x24,0x40,0x20,0x00
000354  000002e0          DCB      0x00,0x00,0x02,0xe0
000358  05500550          DCB      0x05,0x50,0x05,0x50
00035c  06500420          DCB      0x06,0x50,0x04,0x20
000360  20403fc0          DCB      0x20,0x40,0x3f,0xc0
000364  04400400          DCB      0x04,0x40,0x04,0x00
000368  03c00040          DCB      0x03,0xc0,0x00,0x40
00036c  00000440          DCB      0x00,0x00,0x04,0x40
000370  27c00040          DCB      0x27,0xc0,0x00,0x40
000374  00000000          DCB      0x00,0x00,0x00,0x00
000378  00100010          DCB      0x00,0x10,0x00,0x10
00037c  041027e0          DCB      0x04,0x10,0x27,0xe0
000380  00000000          DCB      0x00,0x00,0x00,0x00
000384  20403fc0          DCB      0x20,0x40,0x3f,0xc0
000388  01400700          DCB      0x01,0x40,0x07,0x00
00038c  04c00440          DCB      0x04,0xc0,0x04,0x40
000390  20402040          DCB      0x20,0x40,0x20,0x40
000394  3fc00040          DCB      0x3f,0xc0,0x00,0x40
000398  00400000          DCB      0x00,0x40,0x00,0x00
00039c  07c00400          DCB      0x07,0xc0,0x04,0x00
0003a0  07c00400          DCB      0x07,0xc0,0x04,0x00
0003a4  03c00000          DCB      0x03,0xc0,0x00,0x00
0003a8  044007c0          DCB      0x04,0x40,0x07,0xc0
0003ac  04400400          DCB      0x04,0x40,0x04,0x00
0003b0  03c00040          DCB      0x03,0xc0,0x00,0x40
0003b4  00000380          DCB      0x00,0x00,0x03,0x80
0003b8  04400440          DCB      0x04,0x40,0x04,0x40
0003bc  03800000          DCB      0x03,0x80,0x00,0x00
0003c0  041007f0          DCB      0x04,0x10,0x07,0xf0
0003c4  04500440          DCB      0x04,0x50,0x04,0x40
0003c8  03800000          DCB      0x03,0x80,0x00,0x00
0003cc  00000380          DCB      0x00,0x00,0x03,0x80
0003d0  04400450          DCB      0x04,0x40,0x04,0x50
0003d4  07f00010          DCB      0x07,0xf0,0x00,0x10
0003d8  044007c0          DCB      0x04,0x40,0x07,0xc0
0003dc  02400400          DCB      0x02,0x40,0x04,0x00
0003e0  04000000          DCB      0x04,0x00,0x00,0x00
0003e4  00000640          DCB      0x00,0x00,0x06,0x40
0003e8  05400540          DCB      0x05,0x40,0x05,0x40
0003ec  04c00000          DCB      0x04,0xc0,0x00,0x00
0003f0  00000400          DCB      0x00,0x00,0x04,0x00
0003f4  1f800440          DCB      0x1f,0x80,0x04,0x40
0003f8  00400000          DCB      0x00,0x40,0x00,0x00
0003fc  04000780          DCB      0x04,0x00,0x07,0x80
000400  00400440          DCB      0x00,0x40,0x04,0x40
000404  07c00040          DCB      0x07,0xc0,0x00,0x40
000408  04000700          DCB      0x04,0x00,0x07,0x00
00040c  04c00180          DCB      0x04,0xc0,0x01,0x80
000410  06000400          DCB      0x06,0x00,0x04,0x00
000414  060001c0          DCB      0x06,0x00,0x01,0xc0
000418  070001c0          DCB      0x07,0x00,0x01,0xc0
00041c  06000000          DCB      0x06,0x00,0x00,0x00
000420  044006c0          DCB      0x04,0x40,0x06,0xc0
000424  010006c0          DCB      0x01,0x00,0x06,0xc0
000428  04400000          DCB      0x04,0x40,0x00,0x00
00042c  04100710          DCB      0x04,0x10,0x07,0x10
000430  04e00180          DCB      0x04,0xe0,0x01,0x80
000434  06000400          DCB      0x06,0x00,0x04,0x00
000438  00000440          DCB      0x00,0x00,0x04,0x40
00043c  05c00640          DCB      0x05,0xc0,0x06,0x40
000440  04400000          DCB      0x04,0x40,0x00,0x00
000444  00000000          DCB      0x00,0x00,0x00,0x00
000448  04007be0          DCB      0x04,0x00,0x7b,0xe0
00044c  40200000          DCB      0x40,0x20,0x00,0x00
000450  00000000          DCB      0x00,0x00,0x00,0x00
000454  0000fff0          DCB      0x00,0x00,0xff,0xf0
000458  00000000          DCB      0x00,0x00,0x00,0x00
00045c  00004020          DCB      0x00,0x00,0x40,0x20
000460  7be00400          DCB      0x7b,0xe0,0x04,0x00
000464  00000000          DCB      0x00,0x00,0x00,0x00
000468  40008000          DCB      0x40,0x00,0x80,0x00
00046c  40002000          DCB      0x40,0x00,0x20,0x00
000470  20004000          DCB      0x20,0x00,0x40,0x00
                  asc2_1608
000474  00000000          DCB      0x00,0x00,0x00,0x00
000478  00000000          DCB      0x00,0x00,0x00,0x00
00047c  00000000          DCB      0x00,0x00,0x00,0x00
000480  00000000          DCB      0x00,0x00,0x00,0x00
000484  00000000          DCB      0x00,0x00,0x00,0x00
000488  00001fcc          DCB      0x00,0x00,0x1f,0xcc
00048c  000c0000          DCB      0x00,0x0c,0x00,0x00
000490  00000000          DCB      0x00,0x00,0x00,0x00
000494  00000800          DCB      0x00,0x00,0x08,0x00
000498  30006000          DCB      0x30,0x00,0x60,0x00
00049c  08003000          DCB      0x08,0x00,0x30,0x00
0004a0  60000000          DCB      0x60,0x00,0x00,0x00
0004a4  022003fc          DCB      0x02,0x20,0x03,0xfc
0004a8  1e200220          DCB      0x1e,0x20,0x02,0x20
0004ac  03fc1e20          DCB      0x03,0xfc,0x1e,0x20
0004b0  02200000          DCB      0x02,0x20,0x00,0x00
0004b4  00000e18          DCB      0x00,0x00,0x0e,0x18
0004b8  11043fff          DCB      0x11,0x04,0x3f,0xff
0004bc  10840c78          DCB      0x10,0x84,0x0c,0x78
0004c0  00000000          DCB      0x00,0x00,0x00,0x00
0004c4  0f001084          DCB      0x0f,0x00,0x10,0x84
0004c8  0f3800c0          DCB      0x0f,0x38,0x00,0xc0
0004cc  07781884          DCB      0x07,0x78,0x18,0x84
0004d0  00780000          DCB      0x00,0x78,0x00,0x00
0004d4  00780f84          DCB      0x00,0x78,0x0f,0x84
0004d8  10c41124          DCB      0x10,0xc4,0x11,0x24
0004dc  0e9800e4          DCB      0x0e,0x98,0x00,0xe4
0004e0  00840008          DCB      0x00,0x84,0x00,0x08
0004e4  08006800          DCB      0x08,0x00,0x68,0x00
0004e8  70000000          DCB      0x70,0x00,0x00,0x00
0004ec  00000000          DCB      0x00,0x00,0x00,0x00
0004f0  00000000          DCB      0x00,0x00,0x00,0x00
0004f4  00000000          DCB      0x00,0x00,0x00,0x00
0004f8  000007e0          DCB      0x00,0x00,0x07,0xe0
0004fc  18182004          DCB      0x18,0x18,0x20,0x04
000500  40020000          DCB      0x40,0x02,0x00,0x00
000504  00004002          DCB      0x00,0x00,0x40,0x02
000508  20041818          DCB      0x20,0x04,0x18,0x18
00050c  07e00000          DCB      0x07,0xe0,0x00,0x00
000510  00000000          DCB      0x00,0x00,0x00,0x00
000514  02400240          DCB      0x02,0x40,0x02,0x40
000518  01800ff0          DCB      0x01,0x80,0x0f,0xf0
00051c  01800240          DCB      0x01,0x80,0x02,0x40
000520  02400000          DCB      0x02,0x40,0x00,0x00
000524  00800080          DCB      0x00,0x80,0x00,0x80
000528  00800ff8          DCB      0x00,0x80,0x0f,0xf8
00052c  00800080          DCB      0x00,0x80,0x00,0x80
000530  00800000          DCB      0x00,0x80,0x00,0x00
000534  0001000d          DCB      0x00,0x01,0x00,0x0d
000538  000e0000          DCB      0x00,0x0e,0x00,0x00
00053c  00000000          DCB      0x00,0x00,0x00,0x00
000540  00000000          DCB      0x00,0x00,0x00,0x00
000544  00000080          DCB      0x00,0x00,0x00,0x80
000548  00800080          DCB      0x00,0x80,0x00,0x80
00054c  00800080          DCB      0x00,0x80,0x00,0x80
000550  00800080          DCB      0x00,0x80,0x00,0x80
000554  0000000c          DCB      0x00,0x00,0x00,0x0c
000558  000c0000          DCB      0x00,0x0c,0x00,0x00
00055c  00000000          DCB      0x00,0x00,0x00,0x00
000560  00000000          DCB      0x00,0x00,0x00,0x00
000564  00000006          DCB      0x00,0x00,0x00,0x06
000568  00180060          DCB      0x00,0x18,0x00,0x60
00056c  01800600          DCB      0x01,0x80,0x06,0x00
000570  18002000          DCB      0x18,0x00,0x20,0x00
000574  000007f0          DCB      0x00,0x00,0x07,0xf0
000578  08081004          DCB      0x08,0x08,0x10,0x04
00057c  10040808          DCB      0x10,0x04,0x08,0x08
000580  07f00000          DCB      0x07,0xf0,0x00,0x00
000584  00000804          DCB      0x00,0x00,0x08,0x04
000588  08041ffc          DCB      0x08,0x04,0x1f,0xfc
00058c  00040004          DCB      0x00,0x04,0x00,0x04
000590  00000000          DCB      0x00,0x00,0x00,0x00
000594  00000e0c          DCB      0x00,0x00,0x0e,0x0c
000598  10141024          DCB      0x10,0x14,0x10,0x24
00059c  10441184          DCB      0x10,0x44,0x11,0x84
0005a0  0e0c0000          DCB      0x0e,0x0c,0x00,0x00
0005a4  00000c18          DCB      0x00,0x00,0x0c,0x18
0005a8  10041104          DCB      0x10,0x04,0x11,0x04
0005ac  11041288          DCB      0x11,0x04,0x12,0x88
0005b0  0c700000          DCB      0x0c,0x70,0x00,0x00
0005b4  000000e0          DCB      0x00,0x00,0x00,0xe0
0005b8  03200424          DCB      0x03,0x20,0x04,0x24
0005bc  08241ffc          DCB      0x08,0x24,0x1f,0xfc
0005c0  00240000          DCB      0x00,0x24,0x00,0x00
0005c4  00001f98          DCB      0x00,0x00,0x1f,0x98
0005c8  10841104          DCB      0x10,0x84,0x11,0x04
0005cc  11041088          DCB      0x11,0x04,0x10,0x88
0005d0  10700000          DCB      0x10,0x70,0x00,0x00
0005d4  000007f0          DCB      0x00,0x00,0x07,0xf0
0005d8  08881104          DCB      0x08,0x88,0x11,0x04
0005dc  11041888          DCB      0x11,0x04,0x18,0x88
0005e0  00700000          DCB      0x00,0x70,0x00,0x00
0005e4  00001c00          DCB      0x00,0x00,0x1c,0x00
0005e8  100010fc          DCB      0x10,0x00,0x10,0xfc
0005ec  13001c00          DCB      0x13,0x00,0x1c,0x00
0005f0  10000000          DCB      0x10,0x00,0x00,0x00
0005f4  00000e38          DCB      0x00,0x00,0x0e,0x38
0005f8  11441084          DCB      0x11,0x44,0x10,0x84
0005fc  10841144          DCB      0x10,0x84,0x11,0x44
000600  0e380000          DCB      0x0e,0x38,0x00,0x00
000604  00000700          DCB      0x00,0x00,0x07,0x00
000608  088c1044          DCB      0x08,0x8c,0x10,0x44
00060c  10440888          DCB      0x10,0x44,0x08,0x88
000610  07f00000          DCB      0x07,0xf0,0x00,0x00
000614  00000000          DCB      0x00,0x00,0x00,0x00
000618  0000030c          DCB      0x00,0x00,0x03,0x0c
00061c  030c0000          DCB      0x03,0x0c,0x00,0x00
000620  00000000          DCB      0x00,0x00,0x00,0x00
000624  00000000          DCB      0x00,0x00,0x00,0x00
000628  00010106          DCB      0x00,0x01,0x01,0x06
00062c  00000000          DCB      0x00,0x00,0x00,0x00
000630  00000000          DCB      0x00,0x00,0x00,0x00
000634  00000080          DCB      0x00,0x00,0x00,0x80
000638  01400220          DCB      0x01,0x40,0x02,0x20
00063c  04100808          DCB      0x04,0x10,0x08,0x08
000640  10040000          DCB      0x10,0x04,0x00,0x00
000644  02200220          DCB      0x02,0x20,0x02,0x20
000648  02200220          DCB      0x02,0x20,0x02,0x20
00064c  02200220          DCB      0x02,0x20,0x02,0x20
000650  02200000          DCB      0x02,0x20,0x00,0x00
000654  00001004          DCB      0x00,0x00,0x10,0x04
000658  08080410          DCB      0x08,0x08,0x04,0x10
00065c  02200140          DCB      0x02,0x20,0x01,0x40
000660  00800000          DCB      0x00,0x80,0x00,0x00
000664  00000e00          DCB      0x00,0x00,0x0e,0x00
000668  1200100c          DCB      0x12,0x00,0x10,0x0c
00066c  106c1080          DCB      0x10,0x6c,0x10,0x80
000670  0f000000          DCB      0x0f,0x00,0x00,0x00
000674  03e00c18          DCB      0x03,0xe0,0x0c,0x18
000678  13e41424          DCB      0x13,0xe4,0x14,0x24
00067c  17c40828          DCB      0x17,0xc4,0x08,0x28
000680  07d00000          DCB      0x07,0xd0,0x00,0x00
000684  0004003c          DCB      0x00,0x04,0x00,0x3c
000688  03c41c40          DCB      0x03,0xc4,0x1c,0x40
00068c  074000e4          DCB      0x07,0x40,0x00,0xe4
000690  001c0004          DCB      0x00,0x1c,0x00,0x04
000694  10041ffc          DCB      0x10,0x04,0x1f,0xfc
000698  11041104          DCB      0x11,0x04,0x11,0x04
00069c  11040e88          DCB      0x11,0x04,0x0e,0x88
0006a0  00700000          DCB      0x00,0x70,0x00,0x00
0006a4  03e00c18          DCB      0x03,0xe0,0x0c,0x18
0006a8  10041004          DCB      0x10,0x04,0x10,0x04
0006ac  10041008          DCB      0x10,0x04,0x10,0x08
0006b0  1c100000          DCB      0x1c,0x10,0x00,0x00
0006b4  10041ffc          DCB      0x10,0x04,0x1f,0xfc
0006b8  10041004          DCB      0x10,0x04,0x10,0x04
0006bc  10040808          DCB      0x10,0x04,0x08,0x08
0006c0  07f00000          DCB      0x07,0xf0,0x00,0x00
0006c4  10041ffc          DCB      0x10,0x04,0x1f,0xfc
0006c8  11041104          DCB      0x11,0x04,0x11,0x04
0006cc  17c41004          DCB      0x17,0xc4,0x10,0x04
0006d0  08180000          DCB      0x08,0x18,0x00,0x00
0006d4  10041ffc          DCB      0x10,0x04,0x1f,0xfc
0006d8  11041100          DCB      0x11,0x04,0x11,0x00
0006dc  17c01000          DCB      0x17,0xc0,0x10,0x00
0006e0  08000000          DCB      0x08,0x00,0x00,0x00
0006e4  03e00c18          DCB      0x03,0xe0,0x0c,0x18
0006e8  10041004          DCB      0x10,0x04,0x10,0x04
0006ec  10441c78          DCB      0x10,0x44,0x1c,0x78
0006f0  00400000          DCB      0x00,0x40,0x00,0x00
0006f4  10041ffc          DCB      0x10,0x04,0x1f,0xfc
0006f8  10840080          DCB      0x10,0x84,0x00,0x80
0006fc  00801084          DCB      0x00,0x80,0x10,0x84
000700  1ffc1004          DCB      0x1f,0xfc,0x10,0x04
000704  00001004          DCB      0x00,0x00,0x10,0x04
000708  10041ffc          DCB      0x10,0x04,0x1f,0xfc
00070c  10041004          DCB      0x10,0x04,0x10,0x04
000710  00000000          DCB      0x00,0x00,0x00,0x00
000714  00030001          DCB      0x00,0x03,0x00,0x01
000718  10011001          DCB      0x10,0x01,0x10,0x01
00071c  1ffe1000          DCB      0x1f,0xfe,0x10,0x00
000720  10000000          DCB      0x10,0x00,0x00,0x00
000724  10041ffc          DCB      0x10,0x04,0x1f,0xfc
000728  11040380          DCB      0x11,0x04,0x03,0x80
00072c  1464181c          DCB      0x14,0x64,0x18,0x1c
000730  10040000          DCB      0x10,0x04,0x00,0x00
000734  10041ffc          DCB      0x10,0x04,0x1f,0xfc
000738  10040004          DCB      0x10,0x04,0x00,0x04
00073c  00040004          DCB      0x00,0x04,0x00,0x04
000740  000c0000          DCB      0x00,0x0c,0x00,0x00
000744  10041ffc          DCB      0x10,0x04,0x1f,0xfc
000748  1f0000fc          DCB      0x1f,0x00,0x00,0xfc
00074c  1f001ffc          DCB      0x1f,0x00,0x1f,0xfc
000750  10040000          DCB      0x10,0x04,0x00,0x00
000754  10041ffc          DCB      0x10,0x04,0x1f,0xfc
000758  0c040300          DCB      0x0c,0x04,0x03,0x00
00075c  00e01018          DCB      0x00,0xe0,0x10,0x18
000760  1ffc1000          DCB      0x1f,0xfc,0x10,0x00
000764  07f00808          DCB      0x07,0xf0,0x08,0x08
000768  10041004          DCB      0x10,0x04,0x10,0x04
00076c  10040808          DCB      0x10,0x04,0x08,0x08
000770  07f00000          DCB      0x07,0xf0,0x00,0x00
000774  10041ffc          DCB      0x10,0x04,0x1f,0xfc
000778  10841080          DCB      0x10,0x84,0x10,0x80
00077c  10801080          DCB      0x10,0x80,0x10,0x80
000780  0f000000          DCB      0x0f,0x00,0x00,0x00
000784  07f00818          DCB      0x07,0xf0,0x08,0x18
000788  10241024          DCB      0x10,0x24,0x10,0x24
00078c  101c080a          DCB      0x10,0x1c,0x08,0x0a
000790  07f20000          DCB      0x07,0xf2,0x00,0x00
000794  10041ffc          DCB      0x10,0x04,0x1f,0xfc
000798  11041100          DCB      0x11,0x04,0x11,0x00
00079c  11c01130          DCB      0x11,0xc0,0x11,0x30
0007a0  0e0c0004          DCB      0x0e,0x0c,0x00,0x04
0007a4  00000e1c          DCB      0x00,0x00,0x0e,0x1c
0007a8  11041084          DCB      0x11,0x04,0x10,0x84
0007ac  10841044          DCB      0x10,0x84,0x10,0x44
0007b0  1c380000          DCB      0x1c,0x38,0x00,0x00
0007b4  18001000          DCB      0x18,0x00,0x10,0x00
0007b8  10041ffc          DCB      0x10,0x04,0x1f,0xfc
0007bc  10041000          DCB      0x10,0x04,0x10,0x00
0007c0  18000000          DCB      0x18,0x00,0x00,0x00
0007c4  10001ff8          DCB      0x10,0x00,0x1f,0xf8
0007c8  10040004          DCB      0x10,0x04,0x00,0x04
0007cc  00041004          DCB      0x00,0x04,0x10,0x04
0007d0  1ff81000          DCB      0x1f,0xf8,0x10,0x00
0007d4  10001e00          DCB      0x10,0x00,0x1e,0x00
0007d8  11e0001c          DCB      0x11,0xe0,0x00,0x1c
0007dc  00701380          DCB      0x00,0x70,0x13,0x80
0007e0  1c001000          DCB      0x1c,0x00,0x10,0x00
0007e4  1fc0103c          DCB      0x1f,0xc0,0x10,0x3c
0007e8  00e01f00          DCB      0x00,0xe0,0x1f,0x00
0007ec  00e0103c          DCB      0x00,0xe0,0x10,0x3c
0007f0  1fc00000          DCB      0x1f,0xc0,0x00,0x00
0007f4  1004180c          DCB      0x10,0x04,0x18,0x0c
0007f8  163401c0          DCB      0x16,0x34,0x01,0xc0
0007fc  01c01634          DCB      0x01,0xc0,0x16,0x34
000800  180c1004          DCB      0x18,0x0c,0x10,0x04
000804  10001c00          DCB      0x10,0x00,0x1c,0x00
000808  130400fc          DCB      0x13,0x04,0x00,0xfc
00080c  13041c00          DCB      0x13,0x04,0x1c,0x00
000810  10000000          DCB      0x10,0x00,0x00,0x00
000814  0804101c          DCB      0x08,0x04,0x10,0x1c
000818  10641084          DCB      0x10,0x64,0x10,0x84
00081c  13041c04          DCB      0x13,0x04,0x1c,0x04
000820  10180000          DCB      0x10,0x18,0x00,0x00
000824  00000000          DCB      0x00,0x00,0x00,0x00
000828  00007ffe          DCB      0x00,0x00,0x7f,0xfe
00082c  40024002          DCB      0x40,0x02,0x40,0x02
000830  40020000          DCB      0x40,0x02,0x00,0x00
000834  00003000          DCB      0x00,0x00,0x30,0x00
000838  0c000380          DCB      0x0c,0x00,0x03,0x80
00083c  0060001c          DCB      0x00,0x60,0x00,0x1c
000840  00030000          DCB      0x00,0x03,0x00,0x00
000844  00004002          DCB      0x00,0x00,0x40,0x02
000848  40024002          DCB      0x40,0x02,0x40,0x02
00084c  7ffe0000          DCB      0x7f,0xfe,0x00,0x00
000850  00000000          DCB      0x00,0x00,0x00,0x00
000854  00000000          DCB      0x00,0x00,0x00,0x00
000858  20004000          DCB      0x20,0x00,0x40,0x00
00085c  40004000          DCB      0x40,0x00,0x40,0x00
000860  20000000          DCB      0x20,0x00,0x00,0x00
000864  00010001          DCB      0x00,0x01,0x00,0x01
000868  00010001          DCB      0x00,0x01,0x00,0x01
00086c  00010001          DCB      0x00,0x01,0x00,0x01
000870  00010001          DCB      0x00,0x01,0x00,0x01
000874  00004000          DCB      0x00,0x00,0x40,0x00
000878  40002000          DCB      0x40,0x00,0x20,0x00
00087c  00000000          DCB      0x00,0x00,0x00,0x00
000880  00000000          DCB      0x00,0x00,0x00,0x00
000884  00000098          DCB      0x00,0x00,0x00,0x98
000888  01240144          DCB      0x01,0x24,0x01,0x44
00088c  01440144          DCB      0x01,0x44,0x01,0x44
000890  00fc0004          DCB      0x00,0xfc,0x00,0x04
000894  10001ffc          DCB      0x10,0x00,0x1f,0xfc
000898  00880104          DCB      0x00,0x88,0x01,0x04
00089c  01040088          DCB      0x01,0x04,0x00,0x88
0008a0  00700000          DCB      0x00,0x70,0x00,0x00
0008a4  00000070          DCB      0x00,0x00,0x00,0x70
0008a8  00880104          DCB      0x00,0x88,0x01,0x04
0008ac  01040104          DCB      0x01,0x04,0x01,0x04
0008b0  00880000          DCB      0x00,0x88,0x00,0x00
0008b4  00000070          DCB      0x00,0x00,0x00,0x70
0008b8  00880104          DCB      0x00,0x88,0x01,0x04
0008bc  01041108          DCB      0x01,0x04,0x11,0x08
0008c0  1ffc0004          DCB      0x1f,0xfc,0x00,0x04
0008c4  000000f8          DCB      0x00,0x00,0x00,0xf8
0008c8  01440144          DCB      0x01,0x44,0x01,0x44
0008cc  01440144          DCB      0x01,0x44,0x01,0x44
0008d0  00c80000          DCB      0x00,0xc8,0x00,0x00
0008d4  00000104          DCB      0x00,0x00,0x01,0x04
0008d8  01040ffc          DCB      0x01,0x04,0x0f,0xfc
0008dc  11041104          DCB      0x11,0x04,0x11,0x04
0008e0  11001800          DCB      0x11,0x00,0x18,0x00
0008e4  000000d6          DCB      0x00,0x00,0x00,0xd6
0008e8  01290129          DCB      0x01,0x29,0x01,0x29
0008ec  012901c9          DCB      0x01,0x29,0x01,0xc9
0008f0  01060000          DCB      0x01,0x06,0x00,0x00
0008f4  10041ffc          DCB      0x10,0x04,0x1f,0xfc
0008f8  00840100          DCB      0x00,0x84,0x01,0x00
0008fc  01000104          DCB      0x01,0x00,0x01,0x04
000900  00fc0004          DCB      0x00,0xfc,0x00,0x04
000904  00000104          DCB      0x00,0x00,0x01,0x04
000908  190419fc          DCB      0x19,0x04,0x19,0xfc
00090c  00040004          DCB      0x00,0x04,0x00,0x04
000910  00000000          DCB      0x00,0x00,0x00,0x00
000914  00000003          DCB      0x00,0x00,0x00,0x03
000918  00010101          DCB      0x00,0x01,0x01,0x01
00091c  190119fe          DCB      0x19,0x01,0x19,0xfe
000920  00000000          DCB      0x00,0x00,0x00,0x00
000924  10041ffc          DCB      0x10,0x04,0x1f,0xfc
000928  00240040          DCB      0x00,0x24,0x00,0x40
00092c  01b4010c          DCB      0x01,0xb4,0x01,0x0c
000930  01040000          DCB      0x01,0x04,0x00,0x00
000934  00001004          DCB      0x00,0x00,0x10,0x04
000938  10041ffc          DCB      0x10,0x04,0x1f,0xfc
00093c  00040004          DCB      0x00,0x04,0x00,0x04
000940  00000000          DCB      0x00,0x00,0x00,0x00
000944  010401fc          DCB      0x01,0x04,0x01,0xfc
000948  01040100          DCB      0x01,0x04,0x01,0x00
00094c  01fc0104          DCB      0x01,0xfc,0x01,0x04
000950  010000fc          DCB      0x01,0x00,0x00,0xfc
000954  010401fc          DCB      0x01,0x04,0x01,0xfc
000958  00840100          DCB      0x00,0x84,0x01,0x00
00095c  01000104          DCB      0x01,0x00,0x01,0x04
000960  00fc0004          DCB      0x00,0xfc,0x00,0x04
000964  000000f8          DCB      0x00,0x00,0x00,0xf8
000968  01040104          DCB      0x01,0x04,0x01,0x04
00096c  01040104          DCB      0x01,0x04,0x01,0x04
000970  00f80000          DCB      0x00,0xf8,0x00,0x00
000974  010101ff          DCB      0x01,0x01,0x01,0xff
000978  00850104          DCB      0x00,0x85,0x01,0x04
00097c  01040088          DCB      0x01,0x04,0x00,0x88
000980  00700000          DCB      0x00,0x70,0x00,0x00
000984  00000070          DCB      0x00,0x00,0x00,0x70
000988  00880104          DCB      0x00,0x88,0x01,0x04
00098c  01040105          DCB      0x01,0x04,0x01,0x05
000990  01ff0001          DCB      0x01,0xff,0x00,0x01
000994  01040104          DCB      0x01,0x04,0x01,0x04
000998  01fc0084          DCB      0x01,0xfc,0x00,0x84
00099c  01040100          DCB      0x01,0x04,0x01,0x00
0009a0  01800000          DCB      0x01,0x80,0x00,0x00
0009a4  000000cc          DCB      0x00,0x00,0x00,0xcc
0009a8  01240124          DCB      0x01,0x24,0x01,0x24
0009ac  01240124          DCB      0x01,0x24,0x01,0x24
0009b0  01980000          DCB      0x01,0x98,0x00,0x00
0009b4  00000100          DCB      0x00,0x00,0x01,0x00
0009b8  010007f8          DCB      0x01,0x00,0x07,0xf8
0009bc  01040104          DCB      0x01,0x04,0x01,0x04
0009c0  00000000          DCB      0x00,0x00,0x00,0x00
0009c4  010001f8          DCB      0x01,0x00,0x01,0xf8
0009c8  00040004          DCB      0x00,0x04,0x00,0x04
0009cc  00040108          DCB      0x00,0x04,0x01,0x08
0009d0  01fc0004          DCB      0x01,0xfc,0x00,0x04
0009d4  01000180          DCB      0x01,0x00,0x01,0x80
0009d8  0170000c          DCB      0x01,0x70,0x00,0x0c
0009dc  00100160          DCB      0x00,0x10,0x01,0x60
0009e0  01800100          DCB      0x01,0x80,0x01,0x00
0009e4  01f0010c          DCB      0x01,0xf0,0x01,0x0c
0009e8  003001c0          DCB      0x00,0x30,0x01,0xc0
0009ec  0030010c          DCB      0x00,0x30,0x01,0x0c
0009f0  01f00100          DCB      0x01,0xf0,0x01,0x00
0009f4  00000104          DCB      0x00,0x00,0x01,0x04
0009f8  018c0074          DCB      0x01,0x8c,0x00,0x74
0009fc  0170018c          DCB      0x01,0x70,0x01,0x8c
000a00  01040000          DCB      0x01,0x04,0x00,0x00
000a04  01010181          DCB      0x01,0x01,0x01,0x81
000a08  0171000e          DCB      0x01,0x71,0x00,0x0e
000a0c  00180160          DCB      0x00,0x18,0x01,0x60
000a10  01800100          DCB      0x01,0x80,0x01,0x00
000a14  00000184          DCB      0x00,0x00,0x01,0x84
000a18  010c0134          DCB      0x01,0x0c,0x01,0x34
000a1c  01440184          DCB      0x01,0x44,0x01,0x84
000a20  010c0000          DCB      0x01,0x0c,0x00,0x00
000a24  00000000          DCB      0x00,0x00,0x00,0x00
000a28  00000000          DCB      0x00,0x00,0x00,0x00
000a2c  01003efc          DCB      0x01,0x00,0x3e,0xfc
000a30  40024002          DCB      0x40,0x02,0x40,0x02
000a34  00000000          DCB      0x00,0x00,0x00,0x00
000a38  00000000          DCB      0x00,0x00,0x00,0x00
000a3c  ffff0000          DCB      0xff,0xff,0x00,0x00
000a40  00000000          DCB      0x00,0x00,0x00,0x00
000a44  00004002          DCB      0x00,0x00,0x40,0x02
000a48  40023efc          DCB      0x40,0x02,0x3e,0xfc
000a4c  01000000          DCB      0x01,0x00,0x00,0x00
000a50  00000000          DCB      0x00,0x00,0x00,0x00
000a54  00006000          DCB      0x00,0x00,0x60,0x00
000a58  80008000          DCB      0x80,0x00,0x80,0x00
000a5c  40004000          DCB      0x40,0x00,0x40,0x00
000a60  20002000          DCB      0x20,0x00,0x20,0x00
                  asc2_2412
000a64  00000000          DCB      0x00,0x00,0x00,0x00
000a68  00000000          DCB      0x00,0x00,0x00,0x00
000a6c  00000000          DCB      0x00,0x00,0x00,0x00
000a70  00000000          DCB      0x00,0x00,0x00,0x00
000a74  00000000          DCB      0x00,0x00,0x00,0x00
000a78  00000000          DCB      0x00,0x00,0x00,0x00
000a7c  00000000          DCB      0x00,0x00,0x00,0x00
000a80  00000000          DCB      0x00,0x00,0x00,0x00
000a84  00000000          DCB      0x00,0x00,0x00,0x00
000a88  00000000          DCB      0x00,0x00,0x00,0x00
000a8c  00000000          DCB      0x00,0x00,0x00,0x00
000a90  00000000          DCB      0x00,0x00,0x00,0x00
000a94  0000000f          DCB      0x00,0x00,0x00,0x0f
000a98  80380ffe          DCB      0x80,0x38,0x0f,0xfe
000a9c  380f8038          DCB      0x38,0x0f,0x80,0x38
000aa0  00000000          DCB      0x00,0x00,0x00,0x00
000aa4  00000000          DCB      0x00,0x00,0x00,0x00
000aa8  00000000          DCB      0x00,0x00,0x00,0x00
000aac  00000000          DCB      0x00,0x00,0x00,0x00
000ab0  00000100          DCB      0x00,0x00,0x01,0x00
000ab4  00060000          DCB      0x00,0x06,0x00,0x00
000ab8  0c000038          DCB      0x0c,0x00,0x00,0x38
000abc  00003100          DCB      0x00,0x00,0x31,0x00
000ac0  00060000          DCB      0x00,0x06,0x00,0x00
000ac4  0c000038          DCB      0x0c,0x00,0x00,0x38
000ac8  00003000          DCB      0x00,0x00,0x30,0x00
000acc  00000000          DCB      0x00,0x00,0x00,0x00
000ad0  00000000          DCB      0x00,0x00,0x00,0x00
000ad4  61800067          DCB      0x61,0x80,0x00,0x67
000ad8  f807f980          DCB      0xf8,0x07,0xf9,0x80
000adc  00618000          DCB      0x00,0x61,0x80,0x00
000ae0  61800061          DCB      0x61,0x80,0x00,0x61
000ae4  80006180          DCB      0x80,0x00,0x61,0x80
000ae8  0067f807          DCB      0x00,0x67,0xf8,0x07
000aec  f9800061          DCB      0xf9,0x80,0x00,0x61
000af0  80000000          DCB      0x80,0x00,0x00,0x00
000af4  00000000          DCB      0x00,0x00,0x00,0x00
000af8  000001c0          DCB      0x00,0x00,0x01,0xc0
000afc  e003e0f0          DCB      0xe0,0x03,0xe0,0xf0
000b00  06300804          DCB      0x06,0x30,0x08,0x04
000b04  18081fff          DCB      0x18,0x08,0x1f,0xff
000b08  fe040e08          DCB      0xfe,0x04,0x0e,0x08
000b0c  0787f003          DCB      0x07,0x87,0xf0,0x03
000b10  81e00000          DCB      0x81,0xe0,0x00,0x00
000b14  00000000          DCB      0x00,0x00,0x00,0x00
000b18  01f00006          DCB      0x01,0xf0,0x00,0x06
000b1c  0c000404          DCB      0x0c,0x00,0x04,0x04
000b20  08060c70          DCB      0x08,0x06,0x0c,0x70
000b24  01f9c000          DCB      0x01,0xf9,0xc0,0x00
000b28  0e00003b          DCB      0x0e,0x00,0x00,0x3b
000b2c  e000ec18          DCB      0xe0,0x00,0xec,0x18
000b30  07080804          DCB      0x07,0x08,0x08,0x04
000b34  0c180003          DCB      0x0c,0x18,0x00,0x03
000b38  e0000000          DCB      0xe0,0x00,0x00,0x00
000b3c  0001e000          DCB      0x00,0x01,0xe0,0x00
000b40  07f003f8          DCB      0x07,0xf0,0x03,0xf8
000b44  18041c08          DCB      0x18,0x04,0x1c,0x08
000b48  04170807          DCB      0x04,0x17,0x08,0x07
000b4c  e1d003c0          DCB      0xe1,0xd0,0x03,0xc0
000b50  e00023b0          DCB      0xe0,0x00,0x23,0xb0
000b54  003c0800          DCB      0x00,0x3c,0x08,0x00
000b58  20080000          DCB      0x20,0x08,0x00,0x00
000b5c  10000000          DCB      0x10,0x00,0x00,0x00
000b60  00000001          DCB      0x00,0x00,0x00,0x01
000b64  00003100          DCB      0x00,0x00,0x31,0x00
000b68  00320000          DCB      0x00,0x32,0x00,0x00
000b6c  1c000000          DCB      0x1c,0x00,0x00,0x00
000b70  00000000          DCB      0x00,0x00,0x00,0x00
000b74  00000000          DCB      0x00,0x00,0x00,0x00
000b78  00000000          DCB      0x00,0x00,0x00,0x00
000b7c  00000000          DCB      0x00,0x00,0x00,0x00
000b80  00000000          DCB      0x00,0x00,0x00,0x00
000b84  00000000          DCB      0x00,0x00,0x00,0x00
000b88  00000000          DCB      0x00,0x00,0x00,0x00
000b8c  00000000          DCB      0x00,0x00,0x00,0x00
000b90  00000000          DCB      0x00,0x00,0x00,0x00
000b94  7f0001ff          DCB      0x7f,0x00,0x01,0xff
000b98  c00780f0          DCB      0xc0,0x07,0x80,0xf0
000b9c  0c001810          DCB      0x0c,0x00,0x18,0x10
000ba0  00042000          DCB      0x00,0x04,0x20,0x00
000ba4  02000000          DCB      0x02,0x00,0x00,0x00
000ba8  00000020          DCB      0x00,0x00,0x00,0x20
000bac  00021000          DCB      0x00,0x02,0x10,0x00
000bb0  040c0018          DCB      0x04,0x0c,0x00,0x18
000bb4  0780f001          DCB      0x07,0x80,0xf0,0x01
000bb8  ffc0007f          DCB      0xff,0xc0,0x00,0x7f
000bbc  00000000          DCB      0x00,0x00,0x00,0x00
000bc0  00000000          DCB      0x00,0x00,0x00,0x00
000bc4  00000000          DCB      0x00,0x00,0x00,0x00
000bc8  00000000          DCB      0x00,0x00,0x00,0x00
000bcc  00000000          DCB      0x00,0x00,0x00,0x00
000bd0  42000066          DCB      0x42,0x00,0x00,0x66
000bd4  00006600          DCB      0x00,0x00,0x66,0x00
000bd8  003c0000          DCB      0x00,0x3c,0x00,0x00
000bdc  180003ff          DCB      0x18,0x00,0x03,0xff
000be0  c0001800          DCB      0xc0,0x00,0x18,0x00
000be4  003c0000          DCB      0x00,0x3c,0x00,0x00
000be8  66000066          DCB      0x66,0x00,0x00,0x66
000bec  00004200          DCB      0x00,0x00,0x42,0x00
000bf0  00000000          DCB      0x00,0x00,0x00,0x00
000bf4  08000008          DCB      0x08,0x00,0x00,0x08
000bf8  00000800          DCB      0x00,0x00,0x08,0x00
000bfc  00080000          DCB      0x00,0x08,0x00,0x00
000c00  080001ff          DCB      0x08,0x00,0x01,0xff
000c04  c0000800          DCB      0xc0,0x00,0x08,0x00
000c08  00080000          DCB      0x00,0x08,0x00,0x00
000c0c  08000008          DCB      0x08,0x00,0x00,0x08
000c10  00000800          DCB      0x00,0x00,0x08,0x00
000c14  00000000          DCB      0x00,0x00,0x00,0x00
000c18  00010000          DCB      0x00,0x01,0x00,0x00
000c1c  31000032          DCB      0x31,0x00,0x00,0x32
000c20  00001c00          DCB      0x00,0x00,0x1c,0x00
000c24  00000000          DCB      0x00,0x00,0x00,0x00
000c28  00000000          DCB      0x00,0x00,0x00,0x00
000c2c  00000000          DCB      0x00,0x00,0x00,0x00
000c30  00000000          DCB      0x00,0x00,0x00,0x00
000c34  00000000          DCB      0x00,0x00,0x00,0x00
000c38  00000000          DCB      0x00,0x00,0x00,0x00
000c3c  08000008          DCB      0x08,0x00,0x00,0x08
000c40  00000800          DCB      0x00,0x00,0x08,0x00
000c44  00080000          DCB      0x00,0x08,0x00,0x00
000c48  08000008          DCB      0x08,0x00,0x00,0x08
000c4c  00000800          DCB      0x00,0x00,0x08,0x00
000c50  00080000          DCB      0x00,0x08,0x00,0x00
000c54  08000008          DCB      0x08,0x00,0x00,0x08
000c58  00000000          DCB      0x00,0x00,0x00,0x00
000c5c  00000000          DCB      0x00,0x00,0x00,0x00
000c60  00000000          DCB      0x00,0x00,0x00,0x00
000c64  38000038          DCB      0x38,0x00,0x00,0x38
000c68  00003800          DCB      0x00,0x00,0x38,0x00
000c6c  00000000          DCB      0x00,0x00,0x00,0x00
000c70  00000000          DCB      0x00,0x00,0x00,0x00
000c74  00000000          DCB      0x00,0x00,0x00,0x00
000c78  00000000          DCB      0x00,0x00,0x00,0x00
000c7c  00000000          DCB      0x00,0x00,0x00,0x00
000c80  00000000          DCB      0x00,0x00,0x00,0x00
000c84  00060000          DCB      0x00,0x06,0x00,0x00
000c88  1c000070          DCB      0x1c,0x00,0x00,0x70
000c8c  00018000          DCB      0x00,0x01,0x80,0x00
000c90  0e000038          DCB      0x0e,0x00,0x00,0x38
000c94  0000c000          DCB      0x00,0x00,0xc0,0x00
000c98  0700001c          DCB      0x07,0x00,0x00,0x1c
000c9c  00003000          DCB      0x00,0x00,0x30,0x00
000ca0  00000000          DCB      0x00,0x00,0x00,0x00
000ca4  00000000          DCB      0x00,0x00,0x00,0x00
000ca8  7f8001ff          DCB      0x7f,0x80,0x01,0xff
000cac  e0038070          DCB      0xe0,0x03,0x80,0x70
000cb0  06001804          DCB      0x06,0x00,0x18,0x04
000cb4  00080400          DCB      0x00,0x08,0x04,0x00
000cb8  08060018          DCB      0x08,0x06,0x00,0x18
000cbc  03807001          DCB      0x03,0x80,0x70,0x01
000cc0  ffe0007f          DCB      0xff,0xe0,0x00,0x7f
000cc4  80000000          DCB      0x80,0x00,0x00,0x00
000cc8  00000000          DCB      0x00,0x00,0x00,0x00
000ccc  00000100          DCB      0x00,0x00,0x01,0x00
000cd0  08010008          DCB      0x08,0x01,0x00,0x08
000cd4  01000803          DCB      0x01,0x00,0x08,0x03
000cd8  fff807ff          DCB      0xff,0xf8,0x07,0xff
000cdc  f8000008          DCB      0xf8,0x00,0x00,0x08
000ce0  00000800          DCB      0x00,0x00,0x08,0x00
000ce4  00080000          DCB      0x00,0x08,0x00,0x00
000ce8  00000000          DCB      0x00,0x00,0x00,0x00
000cec  00000001          DCB      0x00,0x00,0x00,0x01
000cf0  c03802c0          DCB      0xc0,0x38,0x02,0xc0
000cf4  58040098          DCB      0x58,0x04,0x00,0x98
000cf8  04011804          DCB      0x04,0x01,0x18,0x04
000cfc  02180404          DCB      0x02,0x18,0x04,0x04
000d00  18061c18          DCB      0x18,0x06,0x1c,0x18
000d04  03f81801          DCB      0x03,0xf8,0x18,0x01
000d08  e0f80000          DCB      0xe0,0xf8,0x00,0x00
000d0c  00000000          DCB      0x00,0x00,0x00,0x00
000d10  00000001          DCB      0x00,0x00,0x00,0x01
000d14  c0e003c0          DCB      0xc0,0xe0,0x03,0xc0
000d18  f0040008          DCB      0xf0,0x04,0x00,0x08
000d1c  04080804          DCB      0x04,0x08,0x08,0x04
000d20  08080618          DCB      0x08,0x08,0x06,0x18
000d24  0803f418          DCB      0x08,0x03,0xf4,0x18
000d28  01e7f000          DCB      0x01,0xe7,0xf0,0x00
000d2c  01e00000          DCB      0x01,0xe0,0x00,0x00
000d30  00000000          DCB      0x00,0x00,0x00,0x00
000d34  00000000          DCB      0x00,0x00,0x00,0x00
000d38  0300000d          DCB      0x03,0x00,0x00,0x0d
000d3c  00001100          DCB      0x00,0x00,0x11,0x00
000d40  00610000          DCB      0x00,0x61,0x00,0x00
000d44  81080301          DCB      0x81,0x08,0x03,0x01
000d48  0807fff8          DCB      0x08,0x07,0xff,0xf8
000d4c  0ffff800          DCB      0x0f,0xff,0xf8,0x00
000d50  01080001          DCB      0x01,0x08,0x00,0x01
000d54  08000000          DCB      0x08,0x00,0x00,0x00
000d58  00000000          DCB      0x00,0x00,0x00,0x00
000d5c  00e007fc          DCB      0x00,0xe0,0x07,0xfc
000d60  d0060808          DCB      0xd0,0x06,0x08,0x08
000d64  06100806          DCB      0x06,0x10,0x08,0x06
000d68  10080610          DCB      0x10,0x08,0x06,0x10
000d6c  08061838          DCB      0x08,0x06,0x18,0x38
000d70  060ff006          DCB      0x06,0x0f,0xf0,0x06
000d74  07c00000          DCB      0x07,0xc0,0x00,0x00
000d78  00000000          DCB      0x00,0x00,0x00,0x00
000d7c  00000000          DCB      0x00,0x00,0x00,0x00
000d80  3f8001ff          DCB      0x3f,0x80,0x01,0xff
000d84  e0038430          DCB      0xe0,0x03,0x84,0x30
000d88  02081804          DCB      0x02,0x08,0x18,0x04
000d8c  10080410          DCB      0x10,0x08,0x04,0x10
000d90  08041008          DCB      0x08,0x04,0x10,0x08
000d94  07181003          DCB      0x07,0x18,0x10,0x03
000d98  0ff00007          DCB      0x0f,0xf0,0x00,0x07
000d9c  c0000000          DCB      0xc0,0x00,0x00,0x00
000da0  00000000          DCB      0x00,0x00,0x00,0x00
000da4  000003c0          DCB      0x00,0x00,0x03,0xc0
000da8  00070000          DCB      0x00,0x07,0x00,0x00
000dac  06000006          DCB      0x06,0x00,0x00,0x06
000db0  00f80607          DCB      0x00,0xf8,0x06,0x07
000db4  f8061800          DCB      0xf8,0x06,0x18,0x00
000db8  06e00007          DCB      0x06,0xe0,0x00,0x07
000dbc  00000600          DCB      0x00,0x00,0x06,0x00
000dc0  00000000          DCB      0x00,0x00,0x00,0x00
000dc4  00000001          DCB      0x00,0x00,0x00,0x01
000dc8  e1e003f7          DCB      0xe1,0xe0,0x03,0xf7
000dcc  f0063410          DCB      0xf0,0x06,0x34,0x10
000dd0  04180804          DCB      0x04,0x18,0x08,0x04
000dd4  1808040c          DCB      0x18,0x08,0x04,0x0c
000dd8  08040c08          DCB      0x08,0x04,0x0c,0x08
000ddc  06161803          DCB      0x06,0x16,0x18,0x03
000de0  f3f001c1          DCB      0xf3,0xf0,0x01,0xc1
000de4  e0000000          DCB      0xe0,0x00,0x00,0x00
000de8  00000000          DCB      0x00,0x00,0x00,0x00
000dec  f80003fc          DCB      0xf8,0x00,0x03,0xfc
000df0  30030638          DCB      0x30,0x03,0x06,0x38
000df4  04020804          DCB      0x04,0x02,0x08,0x04
000df8  02080402          DCB      0x02,0x08,0x04,0x02
000dfc  08040410          DCB      0x08,0x04,0x04,0x10
000e00  0308f001          DCB      0x03,0x08,0xf0,0x01
000e04  ffc0007f          DCB      0xff,0xc0,0x00,0x7f
000e08  00000000          DCB      0x00,0x00,0x00,0x00
000e0c  00000000          DCB      0x00,0x00,0x00,0x00
000e10  00000000          DCB      0x00,0x00,0x00,0x00
000e14  00000000          DCB      0x00,0x00,0x00,0x00
000e18  00000000          DCB      0x00,0x00,0x00,0x00
000e1c  70380070          DCB      0x70,0x38,0x00,0x70
000e20  38007038          DCB      0x38,0x00,0x70,0x38
000e24  00000000          DCB      0x00,0x00,0x00,0x00
000e28  00000000          DCB      0x00,0x00,0x00,0x00
000e2c  00000000          DCB      0x00,0x00,0x00,0x00
000e30  00000000          DCB      0x00,0x00,0x00,0x00
000e34  00000000          DCB      0x00,0x00,0x00,0x00
000e38  00000000          DCB      0x00,0x00,0x00,0x00
000e3c  00000000          DCB      0x00,0x00,0x00,0x00
000e40  301a0030          DCB      0x30,0x1a,0x00,0x30
000e44  1c000000          DCB      0x1c,0x00,0x00,0x00
000e48  00000000          DCB      0x00,0x00,0x00,0x00
000e4c  00000000          DCB      0x00,0x00,0x00,0x00
000e50  00000000          DCB      0x00,0x00,0x00,0x00
000e54  00000000          DCB      0x00,0x00,0x00,0x00
000e58  00000008          DCB      0x00,0x00,0x00,0x08
000e5c  00001400          DCB      0x00,0x00,0x14,0x00
000e60  00220000          DCB      0x00,0x22,0x00,0x00
000e64  41000080          DCB      0x41,0x00,0x00,0x80
000e68  80010040          DCB      0x80,0x01,0x00,0x40
000e6c  02002004          DCB      0x02,0x00,0x20,0x04
000e70  00100800          DCB      0x00,0x10,0x08,0x00
000e74  08000000          DCB      0x08,0x00,0x00,0x00
000e78  00000000          DCB      0x00,0x00,0x00,0x00
000e7c  21000021          DCB      0x21,0x00,0x00,0x21
000e80  00002100          DCB      0x00,0x00,0x21,0x00
000e84  00210000          DCB      0x00,0x21,0x00,0x00
000e88  21000021          DCB      0x21,0x00,0x00,0x21
000e8c  00002100          DCB      0x00,0x00,0x21,0x00
000e90  00210000          DCB      0x00,0x21,0x00,0x00
000e94  21000021          DCB      0x21,0x00,0x00,0x21
000e98  00000000          DCB      0x00,0x00,0x00,0x00
000e9c  00000000          DCB      0x00,0x00,0x00,0x00
000ea0  00000800          DCB      0x00,0x00,0x08,0x00
000ea4  08040010          DCB      0x08,0x04,0x00,0x10
000ea8  02002001          DCB      0x02,0x00,0x20,0x01
000eac  00400080          DCB      0x00,0x40,0x00,0x80
000eb0  80004100          DCB      0x80,0x00,0x41,0x00
000eb4  00220000          DCB      0x00,0x22,0x00,0x00
000eb8  14000008          DCB      0x14,0x00,0x00,0x08
000ebc  00000000          DCB      0x00,0x00,0x00,0x00
000ec0  00000003          DCB      0x00,0x00,0x00,0x03
000ec4  c00004c0          DCB      0xc0,0x00,0x04,0xc0
000ec8  00040000          DCB      0x00,0x04,0x00,0x00
000ecc  08003808          DCB      0x08,0x00,0x38,0x08
000ed0  0f380808          DCB      0x0f,0x38,0x08,0x08
000ed4  38081000          DCB      0x38,0x08,0x10,0x00
000ed8  0c300007          DCB      0x0c,0x30,0x00,0x07
000edc  e00003c0          DCB      0xe0,0x00,0x03,0xc0
000ee0  00000000          DCB      0x00,0x00,0x00,0x00
000ee4  00000000          DCB      0x00,0x00,0x00,0x00
000ee8  3f8000ff          DCB      0x3f,0x80,0x00,0xff
000eec  e0038070          DCB      0xe0,0x03,0x80,0x70
000ef0  020f1006          DCB      0x02,0x0f,0x10,0x06
000ef4  708804c0          DCB      0x70,0x88,0x04,0xc0
000ef8  88048308          DCB      0x88,0x04,0x83,0x08
000efc  047f8802          DCB      0x04,0x7f,0x88,0x02
000f00  c0900301          DCB      0xc0,0x90,0x03,0x01
000f04  2000fe40          DCB      0x20,0x00,0xfe,0x40
000f08  00000800          DCB      0x00,0x00,0x08,0x00
000f0c  00180001          DCB      0x00,0x18,0x00,0x01
000f10  f8003e08          DCB      0xf8,0x00,0x3e,0x08
000f14  01c20007          DCB      0x01,0xc2,0x00,0x07
000f18  020007e2          DCB      0x02,0x00,0x07,0xe2
000f1c  0000fe00          DCB      0x00,0x00,0xfe,0x00
000f20  001fc800          DCB      0x00,0x1f,0xc8,0x00
000f24  01f80000          DCB      0x01,0xf8,0x00,0x00
000f28  38000008          DCB      0x38,0x00,0x00,0x08
000f2c  04000807          DCB      0x04,0x00,0x08,0x07
000f30  fff807ff          DCB      0xff,0xf8,0x07,0xff
000f34  f8040808          DCB      0xf8,0x04,0x08,0x08
000f38  04080804          DCB      0x04,0x08,0x08,0x04
000f3c  08080408          DCB      0x08,0x08,0x04,0x08
000f40  08061808          DCB      0x08,0x06,0x18,0x08
000f44  03f41801          DCB      0x03,0xf4,0x18,0x01
000f48  e7f00001          DCB      0xe7,0xf0,0x00,0x01
000f4c  e0000000          DCB      0xe0,0x00,0x00,0x00
000f50  00000000          DCB      0x00,0x00,0x00,0x00
000f54  3f8001ff          DCB      0x3f,0x80,0x01,0xff
000f58  e0038070          DCB      0xe0,0x03,0x80,0x70
000f5c  02001804          DCB      0x02,0x00,0x18,0x04
000f60  00080400          DCB      0x00,0x08,0x04,0x00
000f64  08040008          DCB      0x08,0x04,0x00,0x08
000f68  04001006          DCB      0x04,0x00,0x10,0x06
000f6c  00200780          DCB      0x00,0x20,0x07,0x80
000f70  c0000000          DCB      0xc0,0x00,0x00,0x00
000f74  04000807          DCB      0x04,0x00,0x08,0x07
000f78  fff807ff          DCB      0xff,0xf8,0x07,0xff
000f7c  f8040008          DCB      0xf8,0x04,0x00,0x08
000f80  04000804          DCB      0x04,0x00,0x08,0x04
000f84  00080400          DCB      0x00,0x08,0x04,0x00
000f88  18020010          DCB      0x18,0x02,0x00,0x10
000f8c  03807001          DCB      0x03,0x80,0x70,0x01
000f90  ffe0007f          DCB      0xff,0xe0,0x00,0x7f
000f94  80000000          DCB      0x80,0x00,0x00,0x00
000f98  04000807          DCB      0x04,0x00,0x08,0x07
000f9c  fff807ff          DCB      0xff,0xf8,0x07,0xff
000fa0  f8040808          DCB      0xf8,0x04,0x08,0x08
000fa4  04080804          DCB      0x04,0x08,0x08,0x04
000fa8  08080408          DCB      0x08,0x08,0x04,0x08
000fac  08043e08          DCB      0x08,0x04,0x3e,0x08
000fb0  04000806          DCB      0x04,0x00,0x08,0x06
000fb4  00180100          DCB      0x00,0x18,0x01,0x00
000fb8  60000000          DCB      0x60,0x00,0x00,0x00
000fbc  04000807          DCB      0x04,0x00,0x08,0x07
000fc0  fff807ff          DCB      0xff,0xf8,0x07,0xff
000fc4  f8040808          DCB      0xf8,0x04,0x08,0x08
000fc8  04080004          DCB      0x04,0x08,0x00,0x04
000fcc  08000408          DCB      0x08,0x00,0x04,0x08
000fd0  00043e00          DCB      0x00,0x04,0x3e,0x00
000fd4  06000006          DCB      0x06,0x00,0x00,0x06
000fd8  00000180          DCB      0x00,0x00,0x01,0x80
000fdc  00000000          DCB      0x00,0x00,0x00,0x00
000fe0  00000000          DCB      0x00,0x00,0x00,0x00
000fe4  3f8001ff          DCB      0x3f,0x80,0x01,0xff
000fe8  e0038070          DCB      0xe0,0x03,0x80,0x70
000fec  06001804          DCB      0x06,0x00,0x18,0x04
000ff0  00080402          DCB      0x00,0x08,0x04,0x02
000ff4  08040208          DCB      0x08,0x04,0x02,0x08
000ff8  0203f007          DCB      0x02,0x03,0xf0,0x07
000ffc  83f00002          DCB      0x83,0xf0,0x00,0x02
001000  00000200          DCB      0x00,0x00,0x02,0x00
001004  04000807          DCB      0x04,0x00,0x08,0x07
001008  fff807ff          DCB      0xff,0xf8,0x07,0xff
00100c  f8040808          DCB      0xf8,0x04,0x08,0x08
001010  00080000          DCB      0x00,0x08,0x00,0x00
001014  08000008          DCB      0x08,0x00,0x00,0x08
001018  00000800          DCB      0x00,0x00,0x08,0x00
00101c  04080807          DCB      0x04,0x08,0x08,0x07
001020  fff807ff          DCB      0xff,0xf8,0x07,0xff
001024  f8040008          DCB      0xf8,0x04,0x00,0x08
001028  00000000          DCB      0x00,0x00,0x00,0x00
00102c  00000400          DCB      0x00,0x00,0x04,0x00
001030  08040008          DCB      0x08,0x04,0x00,0x08
001034  04000807          DCB      0x04,0x00,0x08,0x07
001038  fff807ff          DCB      0xff,0xf8,0x07,0xff
00103c  f8040008          DCB      0xf8,0x04,0x00,0x08
001040  04000804          DCB      0x04,0x00,0x08,0x04
001044  00080000          DCB      0x00,0x08,0x00,0x00
001048  00000000          DCB      0x00,0x00,0x00,0x00
00104c  00000000          DCB      0x00,0x00,0x00,0x00
001050  00060000          DCB      0x00,0x06,0x00,0x00
001054  07000001          DCB      0x07,0x00,0x00,0x01
001058  04000104          DCB      0x04,0x00,0x01,0x04
00105c  00010400          DCB      0x00,0x01,0x04,0x00
001060  0307fffe          DCB      0x03,0x07,0xff,0xfe
001064  07fffc04          DCB      0x07,0xff,0xfc,0x04
001068  00000400          DCB      0x00,0x00,0x04,0x00
00106c  00040000          DCB      0x00,0x04,0x00,0x00
001070  04000807          DCB      0x04,0x00,0x08,0x07
001074  fff807ff          DCB      0xff,0xf8,0x07,0xff
001078  f8040c08          DCB      0xf8,0x04,0x0c,0x08
00107c  00180000          DCB      0x00,0x18,0x00,0x00
001080  3e0004c7          DCB      0x3e,0x00,0x04,0xc7
001084  800503c8          DCB      0x80,0x05,0x03,0xc8
001088  0600f804          DCB      0x06,0x00,0xf8,0x04
00108c  00380400          DCB      0x00,0x38,0x04,0x00
001090  18000008          DCB      0x18,0x00,0x00,0x08
001094  04000807          DCB      0x04,0x00,0x08,0x07
001098  fff807ff          DCB      0xff,0xf8,0x07,0xff
00109c  f8040008          DCB      0xf8,0x04,0x00,0x08
0010a0  00000800          DCB      0x00,0x00,0x08,0x00
0010a4  00080000          DCB      0x00,0x08,0x00,0x00
0010a8  08000008          DCB      0x08,0x00,0x00,0x08
0010ac  00000800          DCB      0x00,0x00,0x08,0x00
0010b0  00180000          DCB      0x00,0x18,0x00,0x00
0010b4  60000000          DCB      0x60,0x00,0x00,0x00
0010b8  04000807          DCB      0x04,0x00,0x08,0x07
0010bc  fff80780          DCB      0xff,0xf8,0x07,0x80
0010c0  0807fc00          DCB      0x08,0x07,0xfc,0x00
0010c4  007fc000          DCB      0x00,0x7f,0xc0,0x00
0010c8  03f80007          DCB      0x03,0xf8,0x00,0x07
0010cc  c0007800          DCB      0xc0,0x00,0x78,0x00
0010d0  07800807          DCB      0x07,0x80,0x08,0x07
0010d4  fff807ff          DCB      0xff,0xf8,0x07,0xff
0010d8  f8040008          DCB      0xf8,0x04,0x00,0x08
0010dc  04000807          DCB      0x04,0x00,0x08,0x07
0010e0  fff80700          DCB      0xff,0xf8,0x07,0x00
0010e4  0803c000          DCB      0x08,0x03,0xc0,0x00
0010e8  00e00000          DCB      0x00,0xe0,0x00,0x00
0010ec  3800001e          DCB      0x38,0x00,0x00,0x1e
0010f0  00000700          DCB      0x00,0x00,0x07,0x00
0010f4  0001c004          DCB      0x00,0x01,0xc0,0x04
0010f8  00f007ff          DCB      0x00,0xf0,0x07,0xff
0010fc  f8040000          DCB      0xf8,0x04,0x00,0x00
001100  00000000          DCB      0x00,0x00,0x00,0x00
001104  7f8001ff          DCB      0x7f,0x80,0x01,0xff
001108  e0038070          DCB      0xe0,0x03,0x80,0x70
00110c  06001804          DCB      0x06,0x00,0x18,0x04
001110  00080400          DCB      0x00,0x08,0x04,0x00
001114  08060018          DCB      0x08,0x06,0x00,0x18
001118  03003001          DCB      0x03,0x00,0x30,0x01
00111c  ffe0007f          DCB      0xff,0xe0,0x00,0x7f
001120  80000000          DCB      0x80,0x00,0x00,0x00
001124  04000807          DCB      0x04,0x00,0x08,0x07
001128  fff807ff          DCB      0xff,0xf8,0x07,0xff
00112c  f8040408          DCB      0xf8,0x04,0x04,0x08
001130  04040004          DCB      0x04,0x04,0x00,0x04
001134  04000404          DCB      0x04,0x00,0x04,0x04
001138  00040400          DCB      0x00,0x04,0x04,0x00
00113c  060c0003          DCB      0x06,0x0c,0x00,0x03
001140  f80001f0          DCB      0xf8,0x00,0x01,0xf0
001144  00000000          DCB      0x00,0x00,0x00,0x00
001148  00000000          DCB      0x00,0x00,0x00,0x00
00114c  7f8001ff          DCB      0x7f,0x80,0x01,0xff
001150  e0038070          DCB      0xe0,0x03,0x80,0x70
001154  06008804          DCB      0x06,0x00,0x88,0x04
001158  00880400          DCB      0x00,0x88,0x04,0x00
00115c  c806003c          DCB      0xc8,0x06,0x00,0x3c
001160  03003e01          DCB      0x03,0x00,0x3e,0x01
001164  ffe6007f          DCB      0xff,0xe6,0x00,0x7f
001168  84000000          DCB      0x84,0x00,0x00,0x00
00116c  04000807          DCB      0x04,0x00,0x08,0x07
001170  fff807ff          DCB      0xff,0xf8,0x07,0xff
001174  f8040808          DCB      0xf8,0x04,0x08,0x08
001178  04080004          DCB      0x04,0x08,0x00,0x04
00117c  0c00040f          DCB      0x0c,0x00,0x04,0x0f
001180  00040bc0          DCB      0x00,0x04,0x0b,0xc0
001184  0610f003          DCB      0x06,0x10,0xf0,0x03
001188  f03801e0          DCB      0xf0,0x38,0x01,0xe0
00118c  08000008          DCB      0x08,0x00,0x00,0x08
001190  00000001          DCB      0x00,0x00,0x00,0x01
001194  e0f803f0          DCB      0xe0,0xf8,0x03,0xf0
001198  30063010          DCB      0x30,0x06,0x30,0x10
00119c  04180804          DCB      0x04,0x18,0x08,0x04
0011a0  1808040c          DCB      0x18,0x08,0x04,0x0c
0011a4  08040c08          DCB      0x08,0x04,0x0c,0x08
0011a8  02061802          DCB      0x02,0x06,0x18,0x02
0011ac  07f00781          DCB      0x07,0xf0,0x07,0x81
0011b0  e0000000          DCB      0xe0,0x00,0x00,0x00
0011b4  01800006          DCB      0x01,0x80,0x00,0x06
0011b8  00000400          DCB      0x00,0x00,0x04,0x00
0011bc  00040000          DCB      0x00,0x04,0x00,0x00
0011c0  04000807          DCB      0x04,0x00,0x08,0x07
0011c4  fff807ff          DCB      0xff,0xf8,0x07,0xff
0011c8  f8040008          DCB      0xf8,0x04,0x00,0x08
0011cc  04000004          DCB      0x04,0x00,0x00,0x04
0011d0  00000600          DCB      0x00,0x00,0x06,0x00
0011d4  00018000          DCB      0x00,0x01,0x80,0x00
0011d8  04000007          DCB      0x04,0x00,0x00,0x07
0011dc  ffe007ff          DCB      0xff,0xe0,0x07,0xff
0011e0  f0040018          DCB      0xf0,0x04,0x00,0x18
0011e4  00000800          DCB      0x00,0x00,0x08,0x00
0011e8  00080000          DCB      0x00,0x08,0x00,0x00
0011ec  08000008          DCB      0x08,0x00,0x00,0x08
0011f0  00000804          DCB      0x00,0x00,0x08,0x04
0011f4  001007ff          DCB      0x00,0x10,0x07,0xff
0011f8  e0040000          DCB      0xe0,0x04,0x00,0x00
0011fc  04000006          DCB      0x04,0x00,0x00,0x06
001200  000007e0          DCB      0x00,0x00,0x07,0xe0
001204  0007fe00          DCB      0x00,0x07,0xfe,0x00
001208  041fe000          DCB      0x04,0x1f,0xe0,0x00
00120c  01f80000          DCB      0x01,0xf8,0x00,0x00
001210  380001e0          DCB      0x38,0x00,0x01,0xe0
001214  043e0007          DCB      0x04,0x3e,0x00,0x07
001218  c0000600          DCB      0xc0,0x00,0x06,0x00
00121c  00040000          DCB      0x00,0x04,0x00,0x00
001220  04000007          DCB      0x04,0x00,0x00,0x07
001224  e00007ff          DCB      0xe0,0x00,0x07,0xff
001228  c0041ff8          DCB      0xc0,0x04,0x1f,0xf8
00122c  0007c007          DCB      0x00,0x07,0xc0,0x07
001230  f80007ff          DCB      0xf8,0x00,0x07,0xff
001234  80043ff8          DCB      0x80,0x04,0x3f,0xf8
001238  0007c004          DCB      0x00,0x07,0xc0,0x04
00123c  f8000700          DCB      0xf8,0x00,0x07,0x00
001240  00040000          DCB      0x00,0x04,0x00,0x00
001244  00000004          DCB      0x00,0x00,0x00,0x04
001248  00080600          DCB      0x00,0x08,0x06,0x00
00124c  1807c078          DCB      0x18,0x07,0xc0,0x78
001250  05f1c800          DCB      0x05,0xf1,0xc8,0x00
001254  3e00001f          DCB      0x3e,0x00,0x00,0x1f
001258  800463e8          DCB      0x80,0x04,0x63,0xe8
00125c  0780f806          DCB      0x07,0x80,0xf8,0x06
001260  00180400          DCB      0x00,0x18,0x04,0x00
001264  08000000          DCB      0x08,0x00,0x00,0x00
001268  04000006          DCB      0x04,0x00,0x00,0x06
00126c  00000780          DCB      0x00,0x00,0x07,0x80
001270  0007e008          DCB      0x00,0x07,0xe0,0x08
001274  047c0800          DCB      0x04,0x7c,0x08,0x00
001278  1ff80007          DCB      0x1f,0xf8,0x00,0x07
00127c  f8001808          DCB      0xf8,0x00,0x18,0x08
001280  04e00807          DCB      0x04,0xe0,0x08,0x07
001284  00000600          DCB      0x00,0x00,0x06,0x00
001288  00040000          DCB      0x00,0x04,0x00,0x00
00128c  00000001          DCB      0x00,0x00,0x00,0x01
001290  00080600          DCB      0x00,0x08,0x06,0x00
001294  380400f8          DCB      0x38,0x04,0x00,0xf8
001298  0403e804          DCB      0x04,0x03,0xe8,0x04
00129c  0f08047c          DCB      0x0f,0x08,0x04,0x7c
0012a0  0805f008          DCB      0x08,0x05,0xf0,0x08
0012a4  07c00807          DCB      0x07,0xc0,0x08,0x07
0012a8  00180400          DCB      0x00,0x18,0x04,0x00
0012ac  60000000          DCB      0x60,0x00,0x00,0x00
0012b0  00000000          DCB      0x00,0x00,0x00,0x00
0012b4  00000000          DCB      0x00,0x00,0x00,0x00
0012b8  00000000          DCB      0x00,0x00,0x00,0x00
0012bc  0000003f          DCB      0x00,0x00,0x00,0x3f
0012c0  fffe2000          DCB      0xff,0xfe,0x20,0x00
0012c4  02200002          DCB      0x02,0x20,0x00,0x02
0012c8  20000220          DCB      0x20,0x00,0x02,0x20
0012cc  00022000          DCB      0x00,0x02,0x20,0x00
0012d0  02000000          DCB      0x02,0x00,0x00,0x00
0012d4  00000000          DCB      0x00,0x00,0x00,0x00
0012d8  00000800          DCB      0x00,0x00,0x08,0x00
0012dc  00070000          DCB      0x00,0x07,0x00,0x00
0012e0  00c00000          DCB      0x00,0xc0,0x00,0x00
0012e4  38000006          DCB      0x38,0x00,0x00,0x06
0012e8  000001c0          DCB      0x00,0x00,0x01,0xc0
0012ec  00003000          DCB      0x00,0x00,0x30,0x00
0012f0  000e0000          DCB      0x00,0x0e,0x00,0x00
0012f4  01000000          DCB      0x01,0x00,0x00,0x00
0012f8  00000000          DCB      0x00,0x00,0x00,0x00
0012fc  00002000          DCB      0x00,0x00,0x20,0x00
001300  02200002          DCB      0x02,0x20,0x00,0x02
001304  20000220          DCB      0x20,0x00,0x02,0x20
001308  00022000          DCB      0x00,0x02,0x20,0x00
00130c  023ffffe          DCB      0x02,0x3f,0xff,0xfe
001310  00000000          DCB      0x00,0x00,0x00,0x00
001314  00000000          DCB      0x00,0x00,0x00,0x00
001318  00000000          DCB      0x00,0x00,0x00,0x00
00131c  00000000          DCB      0x00,0x00,0x00,0x00
001320  00000000          DCB      0x00,0x00,0x00,0x00
001324  00080000          DCB      0x00,0x08,0x00,0x00
001328  10000030          DCB      0x10,0x00,0x00,0x30
00132c  00002000          DCB      0x00,0x00,0x20,0x00
001330  00300000          DCB      0x00,0x30,0x00,0x00
001334  10000008          DCB      0x10,0x00,0x00,0x08
001338  00000000          DCB      0x00,0x00,0x00,0x00
00133c  00000000          DCB      0x00,0x00,0x00,0x00
001340  00000100          DCB      0x00,0x00,0x01,0x00
001344  00010000          DCB      0x00,0x01,0x00,0x00
001348  01000001          DCB      0x01,0x00,0x00,0x01
00134c  00000100          DCB      0x00,0x00,0x01,0x00
001350  00010000          DCB      0x00,0x01,0x00,0x00
001354  01000001          DCB      0x01,0x00,0x00,0x01
001358  00000100          DCB      0x00,0x00,0x01,0x00
00135c  00010000          DCB      0x00,0x01,0x00,0x00
001360  01000001          DCB      0x01,0x00,0x00,0x01
001364  00000000          DCB      0x00,0x00,0x00,0x00
001368  00000000          DCB      0x00,0x00,0x00,0x00
00136c  00200000          DCB      0x00,0x20,0x00,0x00
001370  20000010          DCB      0x20,0x00,0x00,0x10
001374  00001000          DCB      0x00,0x00,0x10,0x00
001378  00000000          DCB      0x00,0x00,0x00,0x00
00137c  00000000          DCB      0x00,0x00,0x00,0x00
001380  00000000          DCB      0x00,0x00,0x00,0x00
001384  00000000          DCB      0x00,0x00,0x00,0x00
001388  00000000          DCB      0x00,0x00,0x00,0x00
00138c  00f00019          DCB      0x00,0xf0,0x00,0x19
001390  f8001b18          DCB      0xf8,0x00,0x1b,0x18
001394  00220800          DCB      0x00,0x22,0x08,0x00
001398  26080024          DCB      0x26,0x08,0x00,0x24
00139c  08002410          DCB      0x08,0x00,0x24,0x10
0013a0  003ff800          DCB      0x00,0x3f,0xf8,0x00
0013a4  1ff80000          DCB      0x1f,0xf8,0x00,0x00
0013a8  08000018          DCB      0x08,0x00,0x00,0x18
0013ac  00000004          DCB      0x00,0x00,0x00,0x04
0013b0  000007ff          DCB      0x00,0x00,0x07,0xff
0013b4  f80ffff0          DCB      0xf8,0x0f,0xff,0xf0
0013b8  00181800          DCB      0x00,0x18,0x18,0x00
0013bc  10080020          DCB      0x10,0x08,0x00,0x20
0013c0  08002008          DCB      0x08,0x00,0x20,0x08
0013c4  00301800          DCB      0x00,0x30,0x18,0x00
0013c8  1ff0000f          DCB      0x1f,0xf0,0x00,0x0f
0013cc  c0000000          DCB      0xc0,0x00,0x00,0x00
0013d0  00000000          DCB      0x00,0x00,0x00,0x00
0013d4  07c0001f          DCB      0x07,0xc0,0x00,0x1f
0013d8  f0001830          DCB      0xf0,0x00,0x18,0x30
0013dc  00200800          DCB      0x00,0x20,0x08,0x00
0013e0  20080020          DCB      0x20,0x08,0x00,0x20
0013e4  08003c08          DCB      0x08,0x00,0x3c,0x08
0013e8  001c1000          DCB      0x00,0x1c,0x10,0x00
0013ec  00600000          DCB      0x00,0x60,0x00,0x00
0013f0  00000000          DCB      0x00,0x00,0x00,0x00
0013f4  00000000          DCB      0x00,0x00,0x00,0x00
0013f8  07c0001f          DCB      0x07,0xc0,0x00,0x1f
0013fc  f0003818          DCB      0xf0,0x00,0x38,0x18
001400  00200800          DCB      0x00,0x20,0x08,0x00
001404  20080020          DCB      0x20,0x08,0x00,0x20
001408  08041010          DCB      0x08,0x04,0x10,0x10
00140c  07fff80f          DCB      0x07,0xff,0xf8,0x0f
001410  fff00000          DCB      0xff,0xf0,0x00,0x00
001414  10000000          DCB      0x10,0x00,0x00,0x00
001418  00000000          DCB      0x00,0x00,0x00,0x00
00141c  00000007          DCB      0x00,0x00,0x00,0x07
001420  c0001ff0          DCB      0xc0,0x00,0x1f,0xf0
001424  00123000          DCB      0x00,0x12,0x30,0x00
001428  22180022          DCB      0x22,0x18,0x00,0x22
00142c  08002208          DCB      0x08,0x00,0x22,0x08
001430  00320800          DCB      0x00,0x32,0x08,0x00
001434  1e10000e          DCB      0x1e,0x10,0x00,0x0e
001438  20000000          DCB      0x20,0x00,0x00,0x00
00143c  00000000          DCB      0x00,0x00,0x00,0x00
001440  20000020          DCB      0x20,0x00,0x00,0x20
001444  08002008          DCB      0x08,0x00,0x20,0x08
001448  01fff803          DCB      0x01,0xff,0xf8,0x03
00144c  fff80620          DCB      0xff,0xf8,0x06,0x20
001450  08042008          DCB      0x08,0x04,0x20,0x08
001454  04200807          DCB      0x04,0x20,0x08,0x07
001458  20000300          DCB      0x20,0x00,0x03,0x00
00145c  00000000          DCB      0x00,0x00,0x00,0x00
001460  00000000          DCB      0x00,0x00,0x00,0x00
001464  000e000e          DCB      0x00,0x0e,0x00,0x0e
001468  6e001ff3          DCB      0x6e,0x00,0x1f,0xf3
00146c  0031b100          DCB      0x00,0x31,0xb1,0x00
001470  20b10020          DCB      0x20,0xb1,0x00,0x20
001474  b1003191          DCB      0xb1,0x00,0x31,0x91
001478  001f1300          DCB      0x00,0x1f,0x13,0x00
00147c  2e1e0020          DCB      0x2e,0x1e,0x00,0x20
001480  0e003000          DCB      0x0e,0x00,0x30,0x00
001484  00000004          DCB      0x00,0x00,0x00,0x04
001488  000807ff          DCB      0x00,0x08,0x07,0xff
00148c  f80ffff8          DCB      0xf8,0x0f,0xff,0xf8
001490  00100800          DCB      0x00,0x10,0x08,0x00
001494  20000020          DCB      0x20,0x00,0x00,0x20
001498  00002008          DCB      0x00,0x00,0x20,0x08
00149c  003ff800          DCB      0x00,0x3f,0xf8,0x00
0014a0  1ff80000          DCB      0x1f,0xf8,0x00,0x00
0014a4  08000000          DCB      0x08,0x00,0x00,0x00
0014a8  00000000          DCB      0x00,0x00,0x00,0x00
0014ac  00000020          DCB      0x00,0x00,0x00,0x20
0014b0  08002008          DCB      0x08,0x00,0x20,0x08
0014b4  00200806          DCB      0x00,0x20,0x08,0x06
0014b8  3ff8063f          DCB      0x3f,0xf8,0x06,0x3f
0014bc  f8000008          DCB      0xf8,0x00,0x00,0x08
0014c0  00000800          DCB      0x00,0x00,0x08,0x00
0014c4  00080000          DCB      0x00,0x08,0x00,0x00
0014c8  00000000          DCB      0x00,0x00,0x00,0x00
0014cc  00000000          DCB      0x00,0x00,0x00,0x00
0014d0  00000000          DCB      0x00,0x00,0x00,0x00
0014d4  03000003          DCB      0x03,0x00,0x00,0x03
0014d8  00200100          DCB      0x00,0x20,0x01,0x00
0014dc  20010020          DCB      0x20,0x01,0x00,0x20
0014e0  03063ffe          DCB      0x03,0x06,0x3f,0xfe
0014e4  063ffc00          DCB      0x06,0x3f,0xfc,0x00
0014e8  00000000          DCB      0x00,0x00,0x00,0x00
0014ec  00000000          DCB      0x00,0x00,0x00,0x00
0014f0  00000004          DCB      0x00,0x00,0x00,0x04
0014f4  000807ff          DCB      0x00,0x08,0x07,0xff
0014f8  f80ffff8          DCB      0xf8,0x0f,0xff,0xf8
0014fc  00018800          DCB      0x00,0x01,0x88,0x00
001500  0300002f          DCB      0x03,0x00,0x00,0x2f
001504  c00038f8          DCB      0xc0,0x00,0x38,0xf8
001508  00203800          DCB      0x00,0x20,0x38,0x00
00150c  20080000          DCB      0x20,0x08,0x00,0x00
001510  08000000          DCB      0x08,0x00,0x00,0x00
001514  00000000          DCB      0x00,0x00,0x00,0x00
001518  00000400          DCB      0x00,0x00,0x04,0x00
00151c  08040008          DCB      0x08,0x04,0x00,0x08
001520  04000807          DCB      0x04,0x00,0x08,0x07
001524  fff80fff          DCB      0xff,0xf8,0x0f,0xff
001528  f8000008          DCB      0xf8,0x00,0x00,0x08
00152c  00000800          DCB      0x00,0x00,0x08,0x00
001530  00080000          DCB      0x00,0x08,0x00,0x00
001534  00000000          DCB      0x00,0x00,0x00,0x00
001538  00200800          DCB      0x00,0x20,0x08,0x00
00153c  3ff8003f          DCB      0x3f,0xf8,0x00,0x3f
001540  f8001008          DCB      0xf8,0x00,0x10,0x08
001544  00200000          DCB      0x00,0x20,0x00,0x00
001548  3ff8003f          DCB      0x3f,0xf8,0x00,0x3f
00154c  f8001008          DCB      0xf8,0x00,0x10,0x08
001550  00200000          DCB      0x00,0x20,0x00,0x00
001554  3ff8003f          DCB      0x3f,0xf8,0x00,0x3f
001558  f8000008          DCB      0xf8,0x00,0x00,0x08
00155c  00000000          DCB      0x00,0x00,0x00,0x00
001560  2008003f          DCB      0x20,0x08,0x00,0x3f
001564  f8003ff8          DCB      0xf8,0x00,0x3f,0xf8
001568  00100800          DCB      0x00,0x10,0x08,0x00
00156c  10000020          DCB      0x10,0x00,0x00,0x20
001570  00002008          DCB      0x00,0x00,0x20,0x08
001574  003ff800          DCB      0x00,0x3f,0xf8,0x00
001578  1ff80000          DCB      0x1f,0xf8,0x00,0x00
00157c  08000000          DCB      0x08,0x00,0x00,0x00
001580  00000000          DCB      0x00,0x00,0x00,0x00
001584  07c0000f          DCB      0x07,0xc0,0x00,0x0f
001588  f0001830          DCB      0xf0,0x00,0x18,0x30
00158c  00300800          DCB      0x00,0x30,0x08,0x00
001590  20080020          DCB      0x20,0x08,0x00,0x20
001594  08003008          DCB      0x08,0x00,0x30,0x08
001598  00183000          DCB      0x00,0x18,0x30,0x00
00159c  0ff00007          DCB      0x0f,0xf0,0x00,0x07
0015a0  c0000000          DCB      0xc0,0x00,0x00,0x00
0015a4  00000000          DCB      0x00,0x00,0x00,0x00
0015a8  2001003f          DCB      0x20,0x01,0x00,0x3f
0015ac  ff003fff          DCB      0xff,0x00,0x3f,0xff
0015b0  00101100          DCB      0x00,0x10,0x11,0x00
0015b4  20090020          DCB      0x20,0x09,0x00,0x20
0015b8  08002008          DCB      0x08,0x00,0x20,0x08
0015bc  00303800          DCB      0x00,0x30,0x38,0x00
0015c0  1ff0000f          DCB      0x1f,0xf0,0x00,0x0f
0015c4  c0000000          DCB      0xc0,0x00,0x00,0x00
0015c8  00000000          DCB      0x00,0x00,0x00,0x00
0015cc  07c0001f          DCB      0x07,0xc0,0x00,0x1f
0015d0  f0003818          DCB      0xf0,0x00,0x38,0x18
0015d4  00200800          DCB      0x00,0x20,0x08,0x00
0015d8  20080020          DCB      0x20,0x08,0x00,0x20
0015dc  09001011          DCB      0x09,0x00,0x10,0x11
0015e0  001fff00          DCB      0x00,0x1f,0xff,0x00
0015e4  3fff0000          DCB      0x3f,0xff,0x00,0x00
0015e8  01000000          DCB      0x01,0x00,0x00,0x00
0015ec  00200800          DCB      0x00,0x20,0x08,0x00
0015f0  20080020          DCB      0x20,0x08,0x00,0x20
0015f4  08003ff8          DCB      0x08,0x00,0x3f,0xf8
0015f8  003ff800          DCB      0x00,0x3f,0xf8,0x00
0015fc  08080010          DCB      0x08,0x08,0x00,0x10
001600  08002008          DCB      0x08,0x00,0x20,0x08
001604  00200000          DCB      0x00,0x20,0x00,0x00
001608  30000030          DCB      0x30,0x00,0x00,0x30
00160c  00000000          DCB      0x00,0x00,0x00,0x00
001610  00000000          DCB      0x00,0x00,0x00,0x00
001614  0000000c          DCB      0x00,0x00,0x00,0x0c
001618  78001e18          DCB      0x78,0x00,0x1e,0x18
00161c  00330800          DCB      0x00,0x33,0x08,0x00
001620  23080021          DCB      0x23,0x08,0x00,0x21
001624  08002188          DCB      0x08,0x00,0x21,0x88
001628  00219800          DCB      0x00,0x21,0x98,0x00
00162c  30f00038          DCB      0x30,0xf0,0x00,0x38
001630  60000000          DCB      0x60,0x00,0x00,0x00
001634  00000000          DCB      0x00,0x00,0x00,0x00
001638  20000020          DCB      0x20,0x00,0x00,0x20
00163c  00002000          DCB      0x00,0x00,0x20,0x00
001640  00fff003          DCB      0x00,0xff,0xf0,0x03
001644  fff80020          DCB      0xff,0xf8,0x00,0x20
001648  08002008          DCB      0x08,0x00,0x20,0x08
00164c  00200800          DCB      0x00,0x20,0x08,0x00
001650  00300000          DCB      0x00,0x30,0x00,0x00
001654  00000000          DCB      0x00,0x00,0x00,0x00
001658  00000000          DCB      0x00,0x00,0x00,0x00
00165c  2000003f          DCB      0x20,0x00,0x00,0x3f
001660  f0007ff8          DCB      0xf0,0x00,0x7f,0xf8
001664  00001800          DCB      0x00,0x00,0x18,0x00
001668  00080000          DCB      0x00,0x08,0x00,0x00
00166c  08002010          DCB      0x08,0x00,0x20,0x10
001670  003ff800          DCB      0x00,0x3f,0xf8,0x00
001674  7ff00000          DCB      0x7f,0xf0,0x00,0x00
001678  10000000          DCB      0x10,0x00,0x00,0x00
00167c  00000000          DCB      0x00,0x00,0x00,0x00
001680  20000030          DCB      0x20,0x00,0x00,0x30
001684  00003c00          DCB      0x00,0x00,0x3c,0x00
001688  003f8000          DCB      0x00,0x3f,0x80,0x00
00168c  23f00000          DCB      0x23,0xf0,0x00,0x00
001690  78000070          DCB      0x78,0x00,0x00,0x70
001694  00238000          DCB      0x00,0x23,0x80,0x00
001698  3c000030          DCB      0x3c,0x00,0x00,0x30
00169c  00002000          DCB      0x00,0x00,0x20,0x00
0016a0  00200000          DCB      0x00,0x20,0x00,0x00
0016a4  3c00003f          DCB      0x3c,0x00,0x00,0x3f
0016a8  e00023f8          DCB      0xe0,0x00,0x23,0xf8
0016ac  0000e000          DCB      0x00,0x00,0xe0,0x00
0016b0  2700003e          DCB      0x27,0x00,0x00,0x3e
0016b4  00003fe0          DCB      0x00,0x00,0x3f,0xe0
0016b8  0021f800          DCB      0x00,0x21,0xf8,0x00
0016bc  01e0003e          DCB      0x01,0xe0,0x00,0x3e
0016c0  00002000          DCB      0x00,0x00,0x20,0x00
0016c4  00000000          DCB      0x00,0x00,0x00,0x00
0016c8  20080020          DCB      0x20,0x08,0x00,0x20
0016cc  08003838          DCB      0x08,0x00,0x38,0x38
0016d0  003e6800          DCB      0x00,0x3e,0x68,0x00
0016d4  27800003          DCB      0x27,0x80,0x00,0x03
0016d8  c8002cf8          DCB      0xc8,0x00,0x2c,0xf8
0016dc  00383800          DCB      0x00,0x38,0x38,0x00
0016e0  20180020          DCB      0x20,0x18,0x00,0x20
0016e4  08000000          DCB      0x08,0x00,0x00,0x00
0016e8  00000000          DCB      0x00,0x00,0x00,0x00
0016ec  20000030          DCB      0x20,0x00,0x00,0x30
0016f0  03003c01          DCB      0x03,0x00,0x3c,0x01
0016f4  003f8300          DCB      0x00,0x3f,0x83,0x00
0016f8  23ec0000          DCB      0x23,0xec,0x00,0x00
0016fc  70002380          DCB      0x70,0x00,0x23,0x80
001700  003c0000          DCB      0x00,0x3c,0x00,0x00
001704  20000020          DCB      0x20,0x00,0x00,0x20
001708  00000000          DCB      0x00,0x00,0x00,0x00
00170c  00000000          DCB      0x00,0x00,0x00,0x00
001710  00000038          DCB      0x00,0x00,0x00,0x38
001714  08002038          DCB      0x08,0x00,0x20,0x38
001718  0020f800          DCB      0x00,0x20,0xf8,0x00
00171c  23e8002f          DCB      0x23,0xe8,0x00,0x2f
001720  88003e08          DCB      0x88,0x00,0x3e,0x08
001724  00380800          DCB      0x00,0x38,0x08,0x00
001728  20180000          DCB      0x20,0x18,0x00,0x00
00172c  70000000          DCB      0x70,0x00,0x00,0x00
001730  00000000          DCB      0x00,0x00,0x00,0x00
001734  00000000          DCB      0x00,0x00,0x00,0x00
001738  00000000          DCB      0x00,0x00,0x00,0x00
00173c  00000000          DCB      0x00,0x00,0x00,0x00
001740  08000014          DCB      0x08,0x00,0x00,0x14
001744  001ff7fc          DCB      0x00,0x1f,0xf7,0xfc
001748  30000620          DCB      0x30,0x00,0x06,0x20
00174c  00020000          DCB      0x00,0x02,0x00,0x00
001750  00000000          DCB      0x00,0x00,0x00,0x00
001754  00000000          DCB      0x00,0x00,0x00,0x00
001758  00000000          DCB      0x00,0x00,0x00,0x00
00175c  00000000          DCB      0x00,0x00,0x00,0x00
001760  00000000          DCB      0x00,0x00,0x00,0x00
001764  0000ffff          DCB      0x00,0x00,0xff,0xff
001768  ff000000          DCB      0xff,0x00,0x00,0x00
00176c  00000000          DCB      0x00,0x00,0x00,0x00
001770  00000000          DCB      0x00,0x00,0x00,0x00
001774  00000000          DCB      0x00,0x00,0x00,0x00
001778  00000000          DCB      0x00,0x00,0x00,0x00
00177c  00002000          DCB      0x00,0x00,0x20,0x00
001780  02300006          DCB      0x02,0x30,0x00,0x06
001784  1ff7fc00          DCB      0x1f,0xf7,0xfc,0x00
001788  14000008          DCB      0x14,0x00,0x00,0x08
00178c  00000000          DCB      0x00,0x00,0x00,0x00
001790  00000000          DCB      0x00,0x00,0x00,0x00
001794  00000000          DCB      0x00,0x00,0x00,0x00
001798  00000000          DCB      0x00,0x00,0x00,0x00
00179c  00000018          DCB      0x00,0x00,0x00,0x18
0017a0  00006000          DCB      0x00,0x00,0x60,0x00
0017a4  00400000          DCB      0x00,0x40,0x00,0x00
0017a8  40000020          DCB      0x40,0x00,0x00,0x20
0017ac  00001000          DCB      0x00,0x00,0x10,0x00
0017b0  00080000          DCB      0x00,0x08,0x00,0x00
0017b4  04000004          DCB      0x04,0x00,0x00,0x04
0017b8  00000c00          DCB      0x00,0x00,0x0c,0x00
0017bc  00100000          DCB      0x00,0x10,0x00,0x00

                          AREA ||.data||, DATA, ALIGN=1

                  POINT_COLOR
000000  0000              DCW      0x0000
                  BACK_COLOR
000002  ffff              DCW      0xffff
